(lp0
I0
aI1
aI2
aI3
aI4
aI5
aI6
a(lp1
I306
aI901
aaI8
a(lp2
I764
aI741
aa(lp3
I672
aI185
aaI11
aI12
aI13
a(lp4
I569
aI741
aa(lp5
I437
aI901
aaI16
aI17
aI18
aI19
a(lp6
I235
aI741
aa(lp7
I782
aI901
aaI22
aI23
aI24
aI25
a(lp8
I50
aI233
aa(lp9
I27
aI741
aaI28
aI29
aI30
aI31
aI32
aI33
a(lp10
I552
aI741
aaI35
a(lp11
I551
aI185
aaI37
aI38
a(lp12
I22
aI185
aaI40
aI41
a(lp13
I299
aI741
aaI43
a(lp14
I36
aI741
aaI45
aI46
aI47
a(lp15
I125
aI233
aa(lp16
I420
aI185
aa(lp17
I733
aI901
aaI51
aI52
aI53
aI54
aI55
aI56
a(lp18
I117
aI901
aaI58
aI59
aI60
aI61
aI62
aI63
a(lp19
I277
aI741
aaI65
aI66
aI67
aI68
aI69
aI70
a(lp20
I51
aI185
aa(lp21
I158
aI901
aa(lp22
I662
aI185
aaI74
a(lp23
I763
aI741
aaI76
aI77
aI78
aI79
aI80
aI81
a(lp24
I706
aI233
aaI83
aI84
a(lp25
I6
aI233
aaI86
aI87
a(lp26
I339
aI741
aaI89
aI90
a(lp27
I84
aI233
aaI92
a(lp28
I272
aI741
aaI94
aI95
aI96
aI97
aI98
aI99
aI100
aI101
aI102
a(lp29
I919
aI741
aaI104
aI105
aI106
a(lp30
I258
aI185
aaI108
aI109
a(lp31
I900
aI741
aaI111
aI112
aI113
aI114
aI115
aI116
a(lp32
I200
aI741
aaI118
a(lp33
I285
aI741
aaI120
aI121
aI122
aI123
aI124
aI125
aI126
aI127
aI128
aI129
aI130
aI131
a(lp34
I119
aI741
aaI133
aI134
a(lp35
I448
aI741
aaI136
aI137
aI138
aI139
a(lp36
I267
aI901
aaI141
a(lp37
I192
aI741
aaI143
a(lp38
I379
aI741
aaI145
aI146
aI147
aI148
aI149
aI150
aI151
a(lp39
I203
aI901
aaI153
aI154
aI155
aI156
a(lp40
I559
aI901
aa(lp41
I519
aI185
aa(lp42
I920
aI185
aaI160
aI161
aI162
a(lp43
I689
aI741
aaI164
aI165
aI166
a(lp44
I212
aI185
aaI168
aI169
aI170
aI171
aI172
aI173
aI174
aI175
a(lp45
I607
aI901
aa(lp46
I488
aI741
aaI178
aI179
aI180
aI181
aI182
aI183
a(lp47
I135
aI233
aa(lp48
I110
aI185
aaI186
a(lp49
I524
aI901
aaI188
a(lp50
I393
aI901
aa(lp51
I950
aI901
aaI191
aI192
a(lp52
I207
aI741
aaI194
a(lp53
I165
aI741
aaI196
aI197
aI198
aI199
aI200
aI201
aI202
aI203
aI204
a(lp54
I339
aI901
aaI206
a(lp55
I450
aI233
aaI208
aI209
aI210
aI211
aI212
aI213
aI214
aI215
aI216
aI217
aI218
aI219
aI220
aI221
aI222
a(lp56
I283
aI741
aaI224
a(lp57
I637
aI185
aaI226
aI227
aI228
aI229
a(lp58
I614
aI233
aa(lp59
I886
aI741
aaI232
a(lp60
I521
aI233
aaI234
aI235
aI236
aI237
aI238
aI239
a(lp61
I486
aI741
aa(lp62
I821
aI233
aaI242
aI243
a(lp63
I558
aI901
aaI245
aI246
aI247
a(lp64
I478
aI185
aaI249
aI250
aI251
aI252
aI253
aI254
a(lp65
I51
aI233
aaI256
aI257
aI258
aI259
aI260
aI261
aI262
a(lp66
I891
aI233
aaI264
a(lp67
I708
aI185
aaI266
aI267
a(lp68
I477
aI741
aaI269
a(lp69
I518
aI901
aaI271
aI272
a(lp70
I292
aI185
aaI274
a(lp71
I690
aI741
aaI276
aI277
aI278
aI279
aI280
aI281
aI282
aI283
a(lp72
I817
aI233
aaI285
aI286
aI287
aI288
aI289
aI290
aI291
aI292
aI293
aI294
aI295
aI296
aI297
aI298
aI299
aI300
a(lp73
I257
aI185
aaI302
aI303
aI304
aI305
aI306
a(lp74
I617
aI901
aaI308
aI309
aI310
aI311
a(lp75
I2
aI185
aaI313
aI314
aI315
aI316
aI317
a(lp76
I94
aI185
aaI319
aI320
aI321
aI322
aI323
aI324
a(lp77
I931
aI741
aa(lp78
I610
aI741
aaI327
aI328
aI329
aI330
aI331
aI332
aI333
aI334
aI335
aI336
aI337
aI338
aI339
a(lp79
I925
aI233
aaI341
a(lp80
I14
aI185
aaI343
aI344
aI345
aI346
aI347
aI348
aI349
aI350
aI351
a(lp81
I439
aI233
aa(lp82
I49
aI185
aa(lp83
I551
aI233
aaI355
aI356
aI357
aI358
aI359
aI360
a(lp84
I90
aI901
aaI362
aI363
aI364
aI365
a(lp85
I223
aI741
aaI367
aI368
aI369
a(lp86
I887
aI741
aa(lp87
I159
aI741
aaI372
aI373
aI374
aI375
aI376
aI377
aI378
aI379
a(lp88
I650
aI233
aaI381
a(lp89
I528
aI901
aaI383
aI384
aI385
aI386
aI387
aI388
aI389
aI390
a(lp90
I396
aI901
aaI392
aI393
aI394
aI395
aI396
aI397
aI398
aI399
aI400
aI401
aI402
aI403
aI404
aI405
aI406
aI407
aI408
aI409
aI410
a(lp91
I769
aI185
aa(lp92
I83
aI901
aaI413
aI414
aI415
aI416
aI417
aI418
aI419
aI420
aI421
aI422
aI423
aI424
aI425
aI426
a(lp93
I863
aI741
aaI428
aI429
a(lp94
I241
aI901
aaI431
aI432
a(lp95
I720
aI741
aaI434
a(lp96
I441
aI233
aa(lp97
I165
aI233
aaI437
aI438
aI439
aI440
aI441
aI442
aI443
aI444
aI445
aI446
aI447
a(lp98
I765
aI233
aaI449
aI450
a(lp99
I930
aI741
aaI452
aI453
aI454
aI455
a(lp100
I904
aI741
aaI457
aI458
aI459
aI460
aI461
aI462
aI463
aI464
aI465
aI466
aI467
aI468
a(lp101
I695
aI233
aaI470
a(lp102
I13
aI741
aaI472
aI473
a(lp103
I31
aI741
aaI475
aI476
aI477
aI478
aI479
aI480
aI481
aI482
aI483
aI484
aI485
aI486
aI487
aI488
aI489
a(lp104
I550
aI741
aaI491
a(lp105
I212
aI901
aaI493
aI494
aI495
aI496
aI497
aI498
aI499
a(lp106
I945
aI741
aaI501
aI502
aI503
aI504
aI505
aI506
aI507
aI508
aI509
aI510
aI511
aI512
aI513
aI514
aI515
aI516
aI517
a(lp107
I194
aI901
aa(lp108
I930
aI185
aaI520
aI521
a(lp109
I810
aI741
aaI523
aI524
aI525
aI526
aI527
aI528
aI529
a(lp110
I781
aI901
aaI531
aI532
aI533
aI534
aI535
aI536
a(lp111
I926
aI185
aa(lp112
I770
aI741
aaI539
a(lp113
I727
aI185
aaI541
aI542
aI543
aI544
aI545
aI546
a(lp114
I169
aI233
aaI548
a(lp115
I58
aI185
aaI550
aI551
aI552
aI553
aI554
aI555
aI556
a(lp116
I130
aI185
aaI558
a(lp117
I143
aI901
aaI560
aI561
aI562
aI563
aI564
aI565
aI566
a(lp118
I881
aI741
aa(lp119
I872
aI741
aa(lp120
I289
aI901
aaI570
aI571
aI572
aI573
aI574
aI575
aI576
aI577
aI578
aI579
aI580
aI581
aI582
a(lp121
I627
aI233
aaI584
aI585
a(lp122
I592
aI185
aaI587
aI588
aI589
aI590
a(lp123
I940
aI185
aaI592
aI593
aI594
aI595
aI596
aI597
a(lp124
I373
aI741
aa(lp125
I106
aI741
aaI600
aI601
aI602
aI603
aI604
aI605
aI606
aI607
aI608
a(lp126
I85
aI741
aa(lp127
I420
aI901
aaI611
aI612
aI613
aI614
a(lp128
I912
aI741
aaI616
a(lp129
I141
aI185
aaI618
aI619
aI620
aI621
aI622
aI623
aI624
aI625
aI626
aI627
aI628
aI629
aI630
aI631
aI632
aI633
aI634
aI635
aI636
aI637
a(lp130
I337
aI185
aaI639
aI640
aI641
a(lp131
I698
aI901
aaI643
aI644
aI645
aI646
aI647
aI648
aI649
aI650
aI651
a(lp132
I386
aI741
aaI653
aI654
a(lp133
I456
aI185
aaI656
aI657
aI658
aI659
aI660
aI661
aI662
a(lp134
I527
aI185
aaI664
aI665
a(lp135
I678
aI901
aaI667
aI668
aI669
aI670
aI671
a(lp136
I646
aI741
aaI673
aI674
aI675
aI676
aI677
aI678
aI679
a(lp137
I166
aI901
aaI681
aI682
aI683
a(lp138
I861
aI185
aaI685
aI686
aI687
aI688
a(lp139
I784
aI185
aaI690
aI691
aI692
aI693
aI694
aI695
aI696
a(lp140
I233
aI741
aaI698
aI699
a(lp141
I623
aI185
aaI701
aI702
aI703
aI704
aI705
a(lp142
I330
aI233
aaI707
aI708
aI709
aI710
a(lp143
I321
aI901
aaI712
a(lp144
I14
aI901
aaI714
aI715
aI716
aI717
aI718
aI719
aI720
a(lp145
I443
aI185
aaI722
aI723
aI724
aI725
aI726
aI727
aI728
aI729
aI730
aI731
aI732
a(lp146
I502
aI185
aaI734
aI735
a(lp147
I651
aI185
aa(lp148
I94
aI741
aaI738
aI739
aI740
a(lp149
I174
aI741
aaI742
aI743
a(lp150
I490
aI185
aaI745
aI746
aI747
aI748
a(lp151
I417
aI741
aaI750
aI751
aI752
aI753
aI754
aI755
aI756
aI757
aI758
aI759
aI760
aI761
aI762
aI763
a(lp152
I606
aI233
aaI765
aI766
aI767
aI768
aI769
a(lp153
I863
aI901
aaI771
aI772
aI773
aI774
aI775
aI776
aI777
aI778
a(lp154
I46
aI185
aaI780
aI781
aI782
aI783
a(lp155
I207
aI233
aa(lp156
I838
aI741
aaI786
aI787
aI788
aI789
aI790
aI791
aI792
aI793
a(lp157
I993
aI233
aaI795
aI796
aI797
aI798
aI799
aI800
aI801
aI802
aI803
aI804
aI805
aI806
aI807
aI808
a(lp158
I510
aI741
aaI810
aI811
a(lp159
I82
aI741
aa(lp160
I762
aI741
aaI814
aI815
aI816
aI817
aI818
aI819
aI820
a(lp161
I75
aI901
aa(lp162
I587
aI901
aaI823
aI824
aI825
aI826
aI827
aI828
aI829
aI830
aI831
a(lp163
I472
aI185
aaI833
a(lp164
I406
aI233
aaI835
aI836
aI837
aI838
a(lp165
I879
aI741
aaI840
aI841
aI842
a(lp166
I969
aI233
aaI844
aI845
aI846
a(lp167
I245
aI185
aaI848
aI849
a(lp168
I171
aI185
aa(lp169
I141
aI233
aa(lp170
I27
aI901
aaI853
aI854
aI855
aI856
aI857
aI858
aI859
aI860
aI861
aI862
a(lp171
I211
aI185
aaI864
aI865
aI866
aI867
aI868
aI869
aI870
aI871
aI872
aI873
a(lp172
I353
aI741
aaI875
aI876
aI877
aI878
a(lp173
I397
aI233
aaI880
aI881
a(lp174
I792
aI741
aaI883
a(lp175
I373
aI233
aaI885
aI886
a(lp176
I544
aI185
aaI888
aI889
aI890
aI891
aI892
aI893
a(lp177
I615
aI901
aaI895
aI896
a(lp178
I414
aI185
aaI898
aI899
a(lp179
I733
aI185
aa(lp180
I665
aI901
aaI902
aI903
aI904
a(lp181
I547
aI185
aaI906
a(lp182
I725
aI901
aa(lp183
I599
aI741
aaI909
aI910
a(lp184
I335
aI233
aaI912
aI913
aI914
aI915
aI916
aI917
aI918
aI919
aI920
a(lp185
I894
aI185
aaI922
aI923
a(lp186
I931
aI233
aaI925
a(lp187
I176
aI185
aaI927
a(lp188
I731
aI185
aaI929
aI930
aI931
aI932
a(lp189
I833
aI233
aa(lp190
I751
aI185
aa(lp191
I520
aI741
aaI936
aI937
aI938
aI939
aI940
aI941
a(lp192
I804
aI233
aa(lp193
I649
aI185
aaI944
aI945
aI946
a(lp194
I161
aI185
aaI948
aI949
aI950
aI951
aI952
aI953
aI954
aI955
aI956
aI957
aI958
aI959
a(lp195
I596
aI233
aaI961
aI962
a(lp196
I377
aI741
aaI964
aI965
aI966
aI967
aI968
aI969
aI970
aI971
aI972
a(lp197
I71
aI901
aaI974
aI975
aI976
aI977
aI978
aI979
a(lp198
I74
aI233
aaI981
aI982
aI983
a(lp199
I228
aI741
aaI985
a(lp200
I746
aI233
aaI987
aI988
aI989
a(lp201
I29
aI901
aaI991
aI992
aI993
aI994
aI995
aI996
aI997
aI998
aI999
a.