(lp0
I0
aI1
a(lp1
S'1'
p2
aI-1
aaI3
aI4
aI5
a(lp3
S'2'
p4
aI-1
aaI7
aI8
aI9
aI10
aI11
aI12
a(lp5
S'3'
p6
aI-1
aa(lp7
S'4'
p8
aI-1
aaI15
aI16
aI17
aI18
aI19
aI20
aI21
a(lp9
g2
aI-1
aaI23
aI24
aI25
aI26
a(lp10
g8
aI165
aaI28
a(lp11
g8
aI810
aaI30
a(lp12
g6
aI931
aaI32
aI33
aI34
aI35
a(lp13
g6
aI-1
aaI37
aI38
aI39
a(lp14
g4
aI-1
aaI41
aI42
aI43
aI44
aI45
a(lp15
g2
aI-1
aaI47
a(lp16
g6
aI925
aa(lp17
g2
aI-1
aa(lp18
g4
aI-1
aa(lp19
g4
aI-1
aaI52
aI53
aI54
aI55
aI56
a(lp20
g2
aI-1
aa(lp21
g2
aI-1
aaI59
aI60
aI61
aI62
aI63
aI64
aI65
aI66
aI67
aI68
aI69
aI70
a(lp22
g8
aI930
aaI72
aI73
a(lp23
g4
aI-1
aa(lp24
g8
aI46
aaI76
aI77
aI78
aI79
aI80
a(lp25
g4
aI957
aa(lp26
g6
aI-1
aa(lp27
g8
aI257
aa(lp28
g4
aI-1
aa(lp29
g6
aI287
aaI86
aI87
aI88
aI89
a(lp30
g8
aI-1
aaI91
aI92
aI93
a(lp31
g6
aI406
aaI95
aI96
aI97
aI98
aI99
aI100
aI101
aI102
aI103
aI104
aI105
a(lp32
g6
aI373
aaI107
aI108
aI109
a(lp33
g2
aI-1
aaI111
aI112
aI113
aI114
aI115
aI116
a(lp34
g8
aI-1
aaI118
a(lp35
g6
aI292
aaI120
aI121
aI122
aI123
aI124
a(lp36
g4
aI-1
aaI126
aI127
aI128
aI129
a(lp37
g2
aI-1
aaI131
aI132
aI133
aI134
a(lp38
g4
aI-1
aaI136
aI137
aI138
aI139
aI140
a(lp39
g2
aI-1
aaI142
a(lp40
g8
aI-1
aaI144
a(lp41
g4
aI49
aaI146
aI147
aI148
aI149
aI150
aI151
aI152
aI153
aI154
aI155
aI156
a(lp42
g2
aI-1
aa(lp43
g8
aI283
aa(lp44
g6
aI-1
aaI160
a(lp45
g2
aI-1
aaI162
aI163
aI164
a(lp46
g6
aI-1
aa(lp47
g8
aI-1
aaI167
aI168
a(lp48
g4
aI-1
aaI170
aI171
aI172
aI173
a(lp49
g6
aI205
aaI175
a(lp50
g2
aI-1
aaI177
aI178
aI179
aI180
aI181
aI182
aI183
aI184
aI185
aI186
aI187
aI188
aI189
aI190
aI191
a(lp51
g6
aI-1
aaI193
a(lp52
g8
aI472
aaI195
aI196
aI197
aI198
aI199
a(lp53
g6
aI688
aaI201
aI202
a(lp54
g8
aI94
aaI204
a(lp55
g4
aI-1
aaI206
a(lp56
g6
aI-1
aa(lp57
g4
aI-1
aaI209
aI210
a(lp58
g2
aI-1
aa(lp59
g8
aI397
aaI213
aI214
aI215
aI216
aI217
aI218
aI219
aI220
aI221
aI222
a(lp60
g6
aI614
aaI224
aI225
aI226
aI227
a(lp61
g6
aI-1
aaI229
aI230
aI231
aI232
a(lp62
g6
aI-1
aaI234
a(lp63
g6
aI-1
aaI236
aI237
aI238
aI239
aI240
a(lp64
g8
aI720
aaI242
aI243
aI244
a(lp65
g2
aI-1
aaI246
aI247
aI248
aI249
aI250
aI251
aI252
aI253
aI254
aI255
aI256
a(lp66
g2
aI-1
aa(lp67
g2
aI-1
aaI259
aI260
aI261
aI262
aI263
aI264
aI265
aI266
a(lp68
g8
aI912
aaI268
aI269
aI270
aI271
a(lp69
g6
aI330
aaI273
aI274
aI275
aI276
a(lp70
g6
aI-1
aaI278
aI279
aI280
aI281
aI282
a(lp71
g6
aI993
aaI284
a(lp72
g6
aI-1
aaI286
a(lp73
g4
aI-1
aa(lp74
g2
aI-1
aa(lp75
g8
aI-1
aaI290
aI291
a(lp76
g2
aI-1
aa(lp77
g2
aI-1
aaI294
aI295
aI296
aI297
aI298
a(lp78
g6
aI-1
aaI300
a(lp79
g2
aI-1
aaI302
aI303
aI304
aI305
a(lp80
g8
aI599
aaI307
aI308
aI309
aI310
aI311
aI312
aI313
aI314
aI315
aI316
aI317
aI318
aI319
aI320
a(lp81
g8
aI886
aaI322
aI323
aI324
aI325
aI326
aI327
aI328
aI329
a(lp82
g4
aI57
aaI331
aI332
aI333
aI334
a(lp83
g4
aI141
aaI336
a(lp84
g2
aI-1
aaI338
a(lp85
g8
aI887
aaI340
aI341
aI342
aI343
aI344
aI345
aI346
aI347
aI348
aI349
aI350
aI351
aI352
a(lp86
g6
aI746
aaI354
aI355
aI356
aI357
aI358
aI359
aI360
aI361
aI362
aI363
aI364
aI365
aI366
aI367
aI368
aI369
aI370
aI371
aI372
a(lp87
g6
aI74
aaI374
aI375
aI376
a(lp88
g6
aI-1
aaI378
a(lp89
g6
aI627
aaI380
aI381
aI382
aI383
aI384
aI385
a(lp90
g6
aI-1
aaI387
aI388
aI389
aI390
aI391
aI392
a(lp91
g8
aI-1
aaI394
aI395
a(lp92
g8
aI-1
aa(lp93
g4
aI646
aaI398
aI399
aI400
aI401
aI402
aI403
aI404
aI405
a(lp94
g4
aI547
aaI407
aI408
aI409
aI410
aI411
aI412
aI413
a(lp95
g2
aI-1
aaI415
aI416
a(lp96
g6
aI-1
aaI418
aI419
a(lp97
g8
aI-1
aaI421
aI422
aI423
aI424
aI425
aI426
aI427
aI428
aI429
aI430
aI431
aI432
aI433
aI434
aI435
aI436
a(lp98
g8
aI-1
aaI438
a(lp99
g4
aI-1
aaI440
a(lp100
g4
aI293
aaI442
a(lp101
g2
aI-1
aaI444
aI445
aI446
aI447
a(lp102
g6
aI-1
aaI449
a(lp103
g4
aI-1
aaI451
aI452
aI453
aI454
aI455
a(lp104
g2
aI-1
aaI457
aI458
aI459
aI460
aI461
aI462
aI463
aI464
a(lp105
g2
aI-1
aaI466
aI467
aI468
aI469
aI470
aI471
a(lp106
g2
aI-1
aaI473
aI474
aI475
aI476
a(lp107
g6
aI-1
aa(lp108
g2
aI-1
aaI479
aI480
aI481
aI482
aI483
aI484
aI485
a(lp109
g6
aI-1
aaI487
a(lp110
g6
aI521
aaI489
a(lp111
g2
aI-1
aaI491
aI492
aI493
aI494
aI495
aI496
aI497
aI498
aI499
aI500
aI501
a(lp112
g2
aI-1
aaI503
aI504
aI505
aI506
aI507
a(lp113
g4
aI-1
aaI509
a(lp114
g6
aI-1
aaI511
aI512
aI513
aI514
aI515
aI516
aI517
a(lp115
g8
aI637
aa(lp116
g2
aI-1
aa(lp117
g6
aI-1
aa(lp118
g6
aI81
aaI522
aI523
a(lp119
g8
aI891
aaI525
aI526
a(lp120
g2
aI-1
aaI528
aI529
aI530
aI531
aI532
aI533
aI534
aI535
aI536
aI537
aI538
aI539
aI540
aI541
aI542
aI543
a(lp121
g2
aI-1
aaI545
aI546
a(lp122
g2
aI-1
aaI548
aI549
a(lp123
g6
aI40
aa(lp124
g4
aI450
aa(lp125
g6
aI-1
aaI553
aI554
aI555
aI556
aI557
a(lp126
g8
aI-1
aa(lp127
g8
aI-1
aaI560
aI561
aI562
aI563
aI564
a(lp128
g2
aI-1
aaI566
aI567
aI568
a(lp129
g6
aI-1
aaI570
aI571
aI572
aI573
aI574
aI575
aI576
aI577
aI578
aI579
aI580
aI581
aI582
aI583
aI584
aI585
aI586
a(lp130
g8
aI-1
aaI588
aI589
aI590
aI591
a(lp131
g2
aI-1
aaI593
aI594
aI595
a(lp132
g4
aI258
aaI597
aI598
a(lp133
g6
aI592
aaI600
a(lp134
g2
aI-1
aaI602
aI603
aI604
aI605
a(lp135
g4
aI-1
aa(lp136
g8
aI-1
aaI608
a(lp137
g8
aI48
aa(lp138
g6
aI596
aaI611
aI612
aI613
a(lp139
g4
aI-1
aa(lp140
g8
aI-1
aaI616
a(lp141
g8
aI-1
aaI618
aI619
aI620
aI621
aI622
a(lp142
g2
aI-1
aaI624
aI625
aI626
a(lp143
g4
aI-1
aaI628
aI629
aI630
aI631
aI632
aI633
aI634
aI635
aI636
a(lp144
g2
aI-1
aaI638
aI639
aI640
aI641
aI642
aI643
aI644
aI645
a(lp145
g6
aI-1
aaI647
aI648
a(lp146
g2
aI-1
aa(lp147
g4
aI-1
aa(lp148
g2
aI-1
aaI652
aI653
aI654
aI655
aI656
aI657
aI658
aI659
aI660
aI661
a(lp149
g2
aI-1
aaI663
aI664
a(lp150
g8
aI235
aaI666
aI667
aI668
aI669
aI670
aI671
a(lp151
g2
aI-1
aaI673
aI674
aI675
aI676
aI677
a(lp152
g8
aI-1
aaI679
aI680
aI681
aI682
aI683
aI684
aI685
aI686
aI687
a(lp153
g2
aI-1
aa(lp154
g6
aI-1
aa(lp155
g6
aI-1
aaI691
aI692
aI693
aI694
a(lp156
g4
aI-1
aaI696
aI697
a(lp157
g8
aI-1
aaI699
aI700
aI701
aI702
aI703
aI704
aI705
a(lp158
g4
aI-1
aaI707
a(lp159
g2
aI-1
aaI709
aI710
aI711
aI712
aI713
aI714
aI715
aI716
aI717
aI718
aI719
a(lp160
g6
aI-1
aaI721
aI722
aI723
aI724
a(lp161
g8
aI-1
aaI726
a(lp162
g2
aI-1
aaI728
aI729
aI730
a(lp163
g2
aI-1
aaI732
a(lp164
g8
aI-1
aaI734
aI735
aI736
aI737
aI738
aI739
aI740
aI741
aI742
aI743
aI744
aI745
a(lp165
g4
aI-1
aaI747
aI748
aI749
aI750
a(lp166
g2
aI-1
aaI752
aI753
aI754
aI755
aI756
aI757
aI758
aI759
aI760
aI761
a(lp167
g6
aI-1
aa(lp168
g6
aI-1
aa(lp169
g6
aI-1
aa(lp170
g4
aI-1
aaI766
aI767
aI768
a(lp171
g2
aI-1
aa(lp172
g6
aI-1
aaI771
aI772
aI773
aI774
aI775
aI776
aI777
aI778
aI779
aI780
a(lp173
g8
aI-1
aa(lp174
g8
aI119
aaI783
a(lp175
g2
aI-1
aaI785
aI786
aI787
aI788
aI789
aI790
aI791
aI792
aI793
aI794
aI795
aI796
aI797
aI798
aI799
aI800
aI801
aI802
aI803
a(lp176
g4
aI-1
aaI805
aI806
aI807
aI808
a(lp177
g2
aI-1
aa(lp178
g6
aI-1
aa(lp179
g2
aI-1
aaI812
aI813
aI814
aI815
aI816
a(lp180
g4
aI-1
aaI818
aI819
aI820
a(lp181
g4
aI-1
aaI822
aI823
aI824
aI825
aI826
aI827
aI828
aI829
aI830
aI831
aI832
a(lp182
g4
aI-1
aaI834
aI835
aI836
aI837
a(lp183
g6
aI-1
aaI839
aI840
aI841
aI842
aI843
aI844
aI845
aI846
aI847
aI848
aI849
aI850
aI851
aI852
aI853
aI854
aI855
aI856
aI857
aI858
aI859
aI860
a(lp184
g2
aI-1
aaI862
a(lp185
g8
aI-1
aaI864
aI865
aI866
aI867
aI868
aI869
aI870
aI871
a(lp186
g6
aI-1
aaI873
aI874
aI875
aI876
aI877
aI878
a(lp187
g6
aI-1
aaI880
a(lp188
g6
aI-1
aaI882
aI883
aI884
aI885
a(lp189
g6
aI551
aa(lp190
g6
aI-1
aaI888
aI889
aI890
a(lp191
g4
aI894
aaI892
aI893
a(lp192
g2
aI-1
aaI895
aI896
aI897
aI898
aI899
a(lp193
g6
aI-1
aaI901
aI902
aI903
a(lp194
g6
aI-1
aaI905
aI906
aI907
aI908
aI909
aI910
aI911
a(lp195
g6
aI-1
aaI913
aI914
aI915
aI916
aI917
aI918
a(lp196
g6
aI969
aa(lp197
g2
aI-1
aaI921
aI922
aI923
aI924
a(lp198
g4
aI751
aa(lp199
g2
aI-1
aaI927
aI928
aI929
a(lp200
g6
aI2
aa(lp201
g6
aI-1
aaI932
aI933
aI934
aI935
aI936
aI937
aI938
aI939
a(lp202
g2
aI-1
aaI941
aI942
aI943
aI944
a(lp203
g6
aI-1
aaI946
aI947
aI948
aI949
a(lp204
g8
aI-1
aaI951
aI952
aI953
aI954
aI955
aI956
a(lp205
g2
aI-1
aaI958
aI959
aI960
a(lp206
g2
aI-1
aaI962
aI963
aI964
aI965
aI966
aI967
aI968
a(lp207
g4
aI-1
aaI970
aI971
aI972
aI973
aI974
aI975
aI976
aI977
aI978
aI979
aI980
aI981
aI982
aI983
aI984
aI985
aI986
aI987
aI988
aI989
aI990
aI991
aI992
a(lp208
g4
aI519
aaI994
aI995
aI996
aI997
aI998
aI999
a.