(dp0
S'77de68daecd823babbb58edb1c8e14d7106e83bb'
p1
I792
sS'356a192b7913b04c54574d18c28d46e6395428ab'
p2
I171
sS'da4b9237bacccdf19c0760cab7aec4a8359010b0'
p3
I141
sS'1b6453892473a467d07372d45eb05abc2031647a'
p4
I528
s.