(dp0
S'47080e9f573ccc9dbd5945a535d77c4a4e38e6d3'
p1
I143
sS'2d309ce90c549a12a47588a74687315a7c6b51a7'
p2
I569
sS'f1d16437085ae1e36539a5328125cec05a91bada'
p3
I950
sS'0955dd818206a40e89101bb215630d0623e506fc'
p4
I930
sS'd780042543b5df978df33c6ab77e9d6f18d299c3'
p5
I725
sS'd00ef164202a74e3c2fa18a1237cde170e207a17'
p6
I733
sS'de73eac0c305038f0437bc6a1f994a5a4379ed28'
p7
I339
sS'85488f43956a7971c44ff182b38d810be5973f9b'
p8
I690
sS'2c924e3088204ee77ba681f72be3444357932fca'
p9
I651
sS'2927b4649cf4307f990009a16d33a38ceea4c866'
p10
I161
sS'677c1bfa3a036c74b82ee72bdbebee78a5efbb71'
p11
I558
sS'89f6229a11ac4ebaa553c1a3ea96d78fa7483735'
p12
I192
sS'f803b26388365e33184d5cc145d868e1b8df74d5'
p13
I587
sS'b7c8ffb8fbc67c171328e0e8f643694e8e61b335'
p14
I695
sS'4e8cc85dc61d89db9d25d7a67a4b00011f6fdac7'
p15
I396
sS'b9bc9eb9599dc8cac9a8f99884fcfb4ed933a35f'
p16
I650
sS'0f189b4a857c01fc184fa0a206d26a49a6fa2d5e'
p17
I337
sS'e2bf55662aa92517cbf7c4c5373e4a6c7b50925c'
p18
I727
sS'850c11f722ca39b3d2aad51b7011993feec2a6ff'
p19
I477
sS'ed36cbf2c9bb73ca445c18f5195c59b62495d89c'
p20
I166
sS'e8c39c4d7e6f77fc86f5b18ff3d27b6831259e4f'
p21
I82
sS'f6ba90f34b3fd2469bbf0bb78b7eb878339303bd'
p22
I233
sS'0b1e95cfd9775191a7224d0a218ae79187e80c1d'
p23
I764
sS'04489a12bbaa6aebffb61ed2f524424ba8e1147e'
p24
I486
sS'c1380af48659113969e097bf1cb2bc27425f186c'
p25
I961
sS'04b8c80bb78edbc4f2742dedfab5f5bddf895cd1'
p26
I207
sS'bbccdf2efb33b52e6c9d0a14dd70b2d415fbea6e'
p27
I158
sS'86f7e437faa5a7fce15d1ddcb9eaeaea377667b8'
p28
I71
sS'0d4e654c613ea68bffeeab1587b7dbac44826c2b'
p29
I14
sS'df9e8cae1a712657a8fc5465e4d7ac8c6e828ded'
p30
I339
sS'a6d35c604bf354a18bdcc28ba92c226ca2c9e021'
p31
I277
sS'd92342976d720ff38cf5dcb329be41959ab1ba6c'
p32
I169
sS'f8969a18a0daab6f59b42990613def0b8b6d48eb'
p33
I610
sS'3559d7accf00360971961ca18989adc0614089c0'
p34
I75
sS'16987e757b2da5b14f9e6730e5429cb4997e16f2'
p35
I450
sS'898fdda1f7fb0cbf08d94e70cb7add8420a333fd'
p36
I821
sS'eb6e74ca6cfe960595a0e3866343993d1d2cb8e3'
p37
I439
sS'5452220584f9d82eacc9d4b64b556c642aa95fe3'
p38
I931
sS'269f6e7dce9ef2c00cbe83df8e056fbe0c1099e2'
p39
I379
sS'7e9219a0599eae1d9601883f894b4fbe60870586'
p40
I29
sS'69601c80c9dbb0f4ce9be4bad681e36e83719c2b'
p41
I781
sS'b802f384302cb24fbab0a44997e820bf2e8507bb'
p42
I733
sS'6347b76c94ec55891645db8a51d019d417a1c2d6'
p43
I85
sS'619aae029dda528253a6af0ba619b45baa1df115'
p44
I920
sS'90dbcbc1c025d4d6ebaf1fdc598c02b98136e4a3'
p45
I552
sS'0746eefcb938f6d7ef8ee33335c991d24ee71ffd'
p46
I527
sS'19edc1210777ba4d45049c29280d9cc5e1064c25'
p47
I176
sS'c3ee137d4f22eb06ed1351d644f3674592c90836'
p48
I94
sS'f7ae8d5445b05dc5488cb8d83f9a253ad4da9cc6'
p49
I863
sS'08b8ab391b76b4535a8eda3d983646f94033df86'
p50
I550
sS'0f837f01286bc38fa6a85d0b75d7ca7a8e1f00ba'
p51
I763
sS'e0a06c2e3929d6f0743210e801c00400e6a5b02e'
p52
I804
sS'b51c31d9cefe279357b4ce4a42fb82aa010a365f'
p53
I919
sS'ec96667ac8c50460893f4a00d5fdb401283145dd'
p54
I301
sS'93c8c96b46419d184755f7cd8f257fd048d73e0d'
p55
I443
sS'14012cd1b375ede06f6334b34167397cb7be4265'
p56
I833
sS'6c5522ca8af86fc5069b737bb8892b3ea61002c2'
p57
I665
sS'958f57f57d72a30f329ee5538f21b0257a49a46e'
p58
I84
sS'f98961015a0ac393630f4eda3749d644a716da64'
p59
I510
sS'f29fb922c9bc4dad8787a0562a85a2cd27d035a5'
p60
I881
sS'92bd75ebd8fd2b0179172217b15350cc6d4002f0'
p61
I285
sS'46102433ccd7b596ef7607c8c900895ead30a16a'
p62
I50
sS'c2543fff3bfa6f144c2f06a7de6cd10c0b650cae'
p63
I518
sS'557f255516719ea16f8f4a0aae1166054e2c9b43'
p64
I900
sS'986b1bc1eb8de89643c50722910f99001c232865'
p65
I194
sS'de04fa0e29f9b35e24905d2e512bedc9bb6e09e4'
p66
I321
sS'200a4eeceb23812607056fd2fbd63a0e877f08d7'
p67
I289
sS'000e793db70c59309fa6f0f36d0046d110f3be3c'
p68
I267
sS'552a9a57db099fc652df882729e7224ff9dd8c55'
p69
I811
sS'7a8406af479c3df5ad26d2579f3a81b1a2f78238'
p70
I14
sS'5bdcd3c0d4d24ae3e71b3b452a024c6324c7e4bb'
p71
I904
sS'88fc09e54b17679b0028556344b50c9fe169bdb5'
p72
I130
sS'632189911406baadba67b9264fabc79949ea761a'
p73
I117
sS'13a1f32fdc8f6576cb6c4c484dcb69cc3f147b25'
p74
I228
sS'3fe69382869530ce0a86f97d9955b14a70552f80'
p75
I51
sS'013e5670c034345cdd064d1132b95dd1b6bea040'
p76
I22
sS'cdf7e925f5746741c316f5fbcf39ad0dfca90775'
p77
I765
sS'af10ef20dd9060bbeead0afbc55381a66af442ef'
p78
I203
sS'3d48292e4d2714f11c2adf276b610971e068a519'
p79
I241
sS'f0d521a5dc37493901c869e3f3753ee3ac06b9c0'
p80
I13
sS'355f28f2c0c387add6231fd1a568b9377fd2fb37'
p81
I817
sS'f6a0d6c96c1f47bc49a6b9cb0ad0fc926b84fb0f'
p82
I689
sS'7f01fe787c49e4adbe32533279699f08494c6472'
p83
I646
sS'1f20e66b17a6eb7c2baf1ab68337d91eaf6f4f80'
p84
I623
sS'53b0a1b2fadf4e040cdc2155a7340de24aca93cb'
p85
I649
sS'163df8b0928d9227516590390624aa7b4ac33b93'
p86
I551
sS'93ef0dd827103681fcee453b78be2ff14e1a261d'
p87
I27
sS'24a1733ca8bb0ae45a3ffd1eeddc926b2fc5841f'
p88
I165
sS'9d31985fda87b26d6554bcfbfe7dbc398b51917e'
p89
I335
sS'd015cc465bdb4e51987df7fb870472d3fb9a3505'
p90
I488
sS'676e6f35cfc173f73fea9fe27699cf8185397f0c'
p91
I465
sS'ed04ff4dabf1e2d4cd6b89136c2b24dec27ecca4'
p92
I27
sS'd0975e67a95c1c3a40925066bd88da8d8f4e888a'
p93
I36
sS'c9c64e071d2853bc7906c017a231ad1cc46ab630'
p94
I420
sS'6b34542c7c6d8bca18477fca98818430f3d20b3a'
p95
I125
sS'db3d405b10675998c030223177d42e71b4e7a312'
p96
I31
sS'46148cc3b4d2b3ac8073f14b0cba7f25ffff54bd'
p97
I559
sS'5e0327f3ea73cf88b0f10d01c7514331e769140a'
p98
I662
sS'd87c448044defb778f33158d8ccf94a20531d600'
p99
I58
sS'910440a0b2056ffffa747c3c958aae9c25246d7d'
p100
I731
sS'9a9e56edb7dc61cd92ecb62a0d8d8410a1befc64'
p101
I106
sS'fe05eb1fe7723f694803ca282bd7a614911908ec'
p102
I386
sS'c3499c2729730a7f807efb8676a92dcb6f8a3f8f'
p103
I245
sS'dd4355d9d6a2995312181255c8360adb304d044d'
p104
I926
sS'5fd6574629cf4f9779086bc9d63603ff5c742562'
p105
I90
sS'5f9e5802bbabc71f9275fccf122f5a52b8599f12'
p106
I441
sS'c89add65baa7f86f2dc127859ea01d3d94968f01'
p107
I414
sS'7f55aa8957ff7a016f471be70bca3400ef8e5313'
p108
I872
sS'c09bb890b096f7306f688cc6d1dad34e7e52a223'
p109
I110
sS'535ae678fd33caa22f33566744706724ad7aa74c'
p110
I520
sS'b47f363e2b430c0647f14deea3eced9b0ef300ce'
p111
I609
sS'3b959693d09b2240ecc5112647d33a2a66c14aa2'
p112
I135
sS'78c37ed1a914e7d544d18bafbe533ffbc710a286'
p113
I478
sS'a35e8df8e67845a52974a31c97d74ab8a195e3da'
p114
I207
sS'ff87cea4a48b77342a2dbef29133a128abc52679'
p115
I299
sS'f1bcfb1408f3062f33325b2f345c438fab4af16d'
p116
I617
sS'8eec7bc461808e0b8a28783d0bec1a3a22eb0821'
p117
I373
sS'dfe2db74975e0aa9f6fdd4d61dedcb7328502456'
p118
I448
sS'41b426fb69c819c1f3a57bdc7ae4fe543fd971f1'
p119
I672
sS'1758356db21759f7c5a0da9b4dd1db8fd6feab3f'
p120
I6
sS'4f8278c89ad16da05fec4fdfc61fe44798b92720'
p121
I456
sS'23e4aa5d12e39930eab71c23d665f2a4393c8eb4'
p122
I863
sS'cf1126f67238bf3e85fcc8c8737b72e80ddcfddb'
p123
I51
sS'33b82201081ec7c438cb5d9a36cd72bcb153050b'
p124
I306
sS'87974f45ca1c008614a8296bc8530483382278d9'
p125
I607
sS'4848901b39f315f647470520fc27c57e0fccd481'
p126
I838
sS'a43aa2b3cce8548368bbd79297bc5714364ea31a'
p127
I145
sS'30603fa9e0f620c305cd627ab0ff138a960c48bd'
p128
I706
sS'aef36502d67b0520654deb764dd055a7e905cfdd'
p129
I212
sS'4ab69d1f449d0c975c87c5a03c3f2c332a210aaa'
p130
I945
sS'785fcdb21386e87389a80e0d580bb8e0086e6eaa'
p131
I211
sS'356a192b7913b04c54574d18c28d46e6395428ab'
p132
I708
sS'353c847ec3d51fb75d760939a900605ca2ba1152'
p133
I288
sS'93df14617ceda8ee499003ae137b44e91aa26cce'
p134
I223
sS'9fb29051f2217270a7b253a39f820310d85a78f0'
p135
I861
sS'e540cdd1328b2b21e29a95405c301b9313b7c346'
p136
I272
sS'3e1864f7e391d8cdf79eb333283da56f5d65ae68'
p137
I524
sS'c98978327553757b1548ad20eda9a928720ebe5b'
p138
I770
sS'dabb7d64d487a23f64328ef4cfc8d615fc03a29b'
p139
I490
sS'00819c0e54f9c4fe002aa0570e66e25e695d9513'
p140
I208
sS'75b5f94057f62d093efccb8f9ae134bba7137d11'
p141
I393
sS'6470fd57b9952185ac4a9067cb7959cbf3023520'
p142
I784
sS'7601834e5495b2e7c12452e8ac76bf05d062c577'
p143
I508
sS'8fcd25a39d2037183044a8897e9a5333d727fded'
p144
I353
sS'43eef9a62abb8b1e1654f8a890aae054abffa82b'
p145
I200
sS'2c3a0ef6ef4316e6e5d1c614dce6be8faad1cb40'
p146
I159
sS'2dda784cf25c5a8cbbe11c60e8fb777f7c897dd5'
p147
I157
sS'606bfab7724004ad51de4fe4df37c07eaf76d564'
p148
I565
sS'b619d1e192662017a91f5fc31dfd4bbd1bf10469'
p149
I377
sS'd2a04d71301a8915217dd5faf81d12cffd6cd958'
p150
I615
sS'4374aaee247fb237ce6c97d5c8d64bbe474d16de'
p151
I212
sS'a17c9aaa61e80a1bf71d0d850af4e5baa9800bbd'
p152
I782
sS'94b6931d19c85cc30a433fab65c20f3dc0dc9598'
p153
I544
sS'90c5d1358d128117989fc21f2897a25c99205e50'
p154
I678
sS'dc65dfc08b64ac13cf3fcb3e954576bcc619061e'
p155
I437
sS'6150cff9d7080a62c09520808d52acbd354f0d38'
p156
I417
sS'5821eb27d7b71c9078000da31a5a654c97e401b9'
p157
I879
sS'896876480d978418ecb44100fe96dee4150ec2c7'
p158
I762
sS'660cffc21b661e4c7984b5b2a88f911ddd5d1dd4'
p159
I940
sS'cffa50a32cb13a240d705317bcec65dd1f31b6ad'
p160
I521
sS'f0fed7e4932302916b4e9c73fe47edcafeed7c44'
p161
I83
sS'2cd7484bc1b15fccff822cd21eebb9f498794c14'
p162
I769
sS'd2005cc206ccbfdedf2be43a200cb050c538bdb5'
p163
I420
sS'9847e44893360cd9e5df4a719609faa054a66015'
p164
I174
sS'083dbabef569d46bf2ed5937e359fb78e42fbb0d'
p165
I698
s.