(dp0
S'77de68daecd823babbb58edb1c8e14d7106e83bb'
p1
L314755909755515592000481005244904880186L
sS'356a192b7913b04c54574d18c28d46e6395428ab'
p2
L261578874264819908609102035485573089219L
sS'da4b9237bacccdf19c0760cab7aec4a8359010b0'
p3
L266003691477286198901011725417809479500L
sS'1b6453892473a467d07372d45eb05abc2031647a'
p4
L223974724102701384270894320508706361939L
sS'26847b01b53703af5be1ac75cb3df1752ef4a8ce'
p5
L49411056283060112215432609176309965341L
s.