(lp0
(lp1
S'#EMPTY#'
p2
aL49411056283060112215432609176309965242L
aa(lp3
g2
aL49411056283060112215432609176309965716L
aa(lp4
g2
aL49411056283060112215432609176309964985L
aa(lp5
S'\n^'
p6
aL266003691477286198901011725417809479646L
aa(lp7
S'0kt'
p8
aL266003691477286198901011725417809479000L
aa(lp9
S'\x15P^\x15'
p10
aL223974724102701384270894320508706362241L
aa(lp11
S'#EMPTY#'
p12
aL49411056283060112215432609176309965753L
aa(lp13
g2
aL49411056283060112215432609176309965358L
aa(lp14
g12
aL49411056283060112215432609176309965726L
aa(lp15
g2
aL49411056283060112215432609176309965116L
aa(lp16
S'\x02F\x06'
p17
aL261578874264819908609102035485573088397L
aa(lp18
S'\x17U\x01\rQ'
p19
aL261578874264819908609102035485573088635L
aa(lp20
g2
aL49411056283060112215432609176309965758L
aa(lp21
g2
aL49411056283060112215432609176309965464L
aa(lp22
g2
aL49411056283060112215432609176309965687L
aa(lp23
g2
aL49411056283060112215432609176309965178L
aa(lp24
g2
aL49411056283060112215432609176309964804L
aa(lp25
g2
aL49411056283060112215432609176309965356L
aa(lp26
g2
aL49411056283060112215432609176309965700L
aa(lp27
g12
aL49411056283060112215432609176309965548L
aa(lp28
S'\x0e^'
p29
aL223974724102701384270894320508706361897L
aa(lp30
g2
aL49411056283060112215432609176309965501L
aa(lp31
S'\x06L\x02\x0cD^V'
p32
aL261578874264819908609102035485573088825L
aa(lp33
g12
aL49411056283060112215432609176309965106L
aa(lp34
g12
aL49411056283060112215432609176309965115L
aa(lp35
g2
aL49411056283060112215432609176309965276L
aa(lp36
g2
aL49411056283060112215432609176309964849L
aa(lp37
S'\x14[\x16\rP'
p38
aL261578874264819908609102035485573088463L
aa(lp39
S'\x0cWD\x12'
p40
aL223974724102701384270894320508706361584L
aa(lp41
S'\x15\x06\x11\x04\x0cJZ'
p42
aL314755909755515592000481005244904880580L
aa(lp43
S'\x06\x0b\x0c\x11\x06V\x1a\x0eQ\x1bB\x0c\x17V'
p44
aL314755909755515592000481005244904881077L
aa(lp45
g2
aL49411056283060112215432609176309965330L
aa(lp46
g2
aL49411056283060112215432609176309965614L
aa(lp47
g2
aL49411056283060112215432609176309965676L
aa(lp48
g2
aL49411056283060112215432609176309964984L
aa(lp49
S'\x00'
p50
aL223974724102701384270894320508706361449L
aa(lp51
g12
aL49411056283060112215432609176309965519L
aa(lp52
g2
aL49411056283060112215432609176309965151L
aa(lp53
g2
aL49411056283060112215432609176309965785L
aa(lp54
S'\x16PR\x14\x03'
p55
aL223974724102701384270894320508706361654L
aa(lp56
g12
aL49411056283060112215432609176309964848L
aa(lp57
S'\x00V'
p58
aL223974724102701384270894320508706362257L
aa(lp59
g2
aL49411056283060112215432609176309965819L
aa(lp60
g2
aL49411056283060112215432609176309965148L
aa(lp61
g2
aL49411056283060112215432609176309965426L
aa(lp62
g2
aL49411056283060112215432609176309965559L
aa(lp63
g2
aL49411056283060112215432609176309965708L
aa(lp64
g2
aL49411056283060112215432609176309965701L
aa(lp65
g2
aL49411056283060112215432609176309964927L
aa(lp66
g2
aL49411056283060112215432609176309965118L
aa(lp67
g2
aL49411056283060112215432609176309965527L
aa(lp68
g2
aL49411056283060112215432609176309964965L
aa(lp69
g2
aL49411056283060112215432609176309965565L
aa(lp70
g2
aL49411056283060112215432609176309965780L
aa(lp71
g2
aL49411056283060112215432609176309964888L
aa(lp72
g2
aL49411056283060112215432609176309964832L
aa(lp73
g2
aL49411056283060112215432609176309965582L
aa(lp74
g2
aL49411056283060112215432609176309965742L
aa(lp75
S'\x03\x0c\x11'
p76
aL314755909755515592000481005244904881066L
aa(lp77
g2
aL49411056283060112215432609176309964955L
aa(lp78
g2
aL49411056283060112215432609176309965075L
aa(lp79
g2
aL49411056283060112215432609176309965080L
aa(lp80
g2
aL49411056283060112215432609176309965748L
aa(lp81
g2
aL49411056283060112215432609176309965113L
aa(lp82
S'\x07\x02\x17\x01\x0b'
p83
aL314755909755515592000481005244904881075L
aa(lp84
g2
aL49411056283060112215432609176309965443L
aa(lp85
g2
aL49411056283060112215432609176309965773L
aa(lp86
g2
aL49411056283060112215432609176309965777L
aa(lp87
g2
aL49411056283060112215432609176309965704L
aa(lp88
g12
aL49411056283060112215432609176309965302L
aa(lp89
S'\x06\x0f\x0c\x17\x07'
p90
aL314755909755515592000481005244904880759L
aa(lp91
g2
aL49411056283060112215432609176309965103L
aa(lp92
g2
aL49411056283060112215432609176309965441L
aa(lp93
g2
aL49411056283060112215432609176309965332L
aa(lp94
S'\nKB\x10R'
p95
aL266003691477286198901011725417809479281L
aa(lp96
S'\x14\x07'
p97
aL261578874264819908609102035485573088805L
aa(lp98
g2
aL49411056283060112215432609176309965414L
aa(lp99
g2
aL49411056283060112215432609176309964996L
aa(lp100
g2
aL49411056283060112215432609176309964910L
aa(lp101
g2
aL49411056283060112215432609176309964857L
aa(lp102
S'\x03\x11\x0c\x0f'
p103
aL314755909755515592000481005244904880938L
aa(lp104
g2
aL49411056283060112215432609176309965224L
aa(lp105
g2
aL49411056283060112215432609176309965578L
aa(lp106
g2
aL49411056283060112215432609176309964821L
aa(lp107
S'\x02X\x0f'
p108
aL261578874264819908609102035485573088502L
aa(lp109
g2
aL49411056283060112215432609176309965127L
aa(lp110
g2
aL49411056283060112215432609176309965711L
aa(lp111
g2
aL49411056283060112215432609176309965275L
aa(lp112
g2
aL49411056283060112215432609176309965488L
aa(lp113
S'\x10@\x11\x14WFFJ\x04C'
p114
aL261578874264819908609102035485573089006L
aa(lp115
g12
aL49411056283060112215432609176309965180L
aa(lp116
g2
aL49411056283060112215432609176309964836L
aa(lp117
S'\x16\x06\x02\x10\x00PR\x16'
p118
aL314755909755515592000481005244904880764L
aa(lp119
S'\x10[Y\x00ZW'
p120
aL266003691477286198901011725417809479417L
aa(lp121
g2
aL49411056283060112215432609176309965556L
aa(lp122
g2
aL49411056283060112215432609176309965718L
aa(lp123
g2
aL49411056283060112215432609176309965397L
aa(lp124
g12
aL49411056283060112215432609176309964874L
aa(lp125
g2
aL49411056283060112215432609176309964913L
aa(lp126
S'\x06\x0c\r\x11\x17YY\x11G'
p127
aL314755909755515592000481005244904881094L
aa(lp128
g2
aL49411056283060112215432609176309965048L
aa(lp129
S'\x05A\x0f\rM\x1fWA\x0fQ\x0fPQ'
p130
aL261578874264819908609102035485573088400L
aa(lp131
S'\x02_P\x0cYAL'
p132
aL266003691477286198901011725417809479060L
aa(lp133
g2
aL49411056283060112215432609176309964887L
aa(lp134
g2
aL49411056283060112215432609176309965769L
aa(lp135
g2
aL49411056283060112215432609176309965314L
aa(lp136
g2
aL49411056283060112215432609176309965289L
aa(lp137
g2
aL49411056283060112215432609176309964892L
aa(lp138
S'60&OR'
p139
aL314755909755515592000481005244904880225L
aa(lp140
S'\x05[\x11'
p141
aL261578874264819908609102035485573089018L
aa(lp142
S'\x16\x16\x13\x12\x0cJC'
p143
aL314755909755515592000481005244904880599L
aa(lp144
g2
aL49411056283060112215432609176309965393L
aa(lp145
g2
aL49411056283060112215432609176309965028L
aa(lp146
g2
aL49411056283060112215432609176309964879L
aa(lp147
S'\x08V'
p148
aL223974724102701384270894320508706361861L
aa(lp149
g2
aL49411056283060112215432609176309965381L
aa(lp150
g2
aL49411056283060112215432609176309965154L
aa(lp151
g2
aL49411056283060112215432609176309965023L
aa(lp152
g12
aL49411056283060112215432609176309964827L
aa(lp153
g2
aL49411056283060112215432609176309964962L
aa(lp154
S'\x10\\\x0c\x16Z'
p155
aL261578874264819908609102035485573089086L
aa(lp156
S'\n\r\x0f\x1b'
p157
aL314755909755515592000481005244904881126L
aa(lp158
g2
aL49411056283060112215432609176309965279L
aa(lp159
g2
aL49411056283060112215432609176309965756L
aa(lp160
g2
aL49411056283060112215432609176309964901L
aa(lp161
g2
aL49411056283060112215432609176309965546L
aa(lp162
g2
aL49411056283060112215432609176309965487L
aa(lp163
g2
aL49411056283060112215432609176309965213L
aa(lp164
S'\x04\r'
p165
aL314755909755515592000481005244904880495L
aa(lp166
g2
aL49411056283060112215432609176309965182L
aa(lp167
S'\x0c\r\x06\x04\x05QT\x0cQ\x0cA'
p168
aL314755909755515592000481005244904880821L
aa(lp169
g2
aL49411056283060112215432609176309965673L
aa(lp170
S'\x0c\r'
p171
aL314755909755515592000481005244904881116L
aa(lp172
g2
aL49411056283060112215432609176309965420L
aa(lp173
g2
aL49411056283060112215432609176309965039L
aa(lp174
g2
aL49411056283060112215432609176309965499L
aa(lp175
g2
aL49411056283060112215432609176309965468L
aa(lp176
g2
aL49411056283060112215432609176309965416L
aa(lp177
S'\x04\r\x07'
p178
aL-314755909755515592000481005244904880884L
aa(lp179
g2
aL49411056283060112215432609176309965436L
aa(lp180
g2
aL49411056283060112215432609176309964902L
aa(lp181
g2
aL49411056283060112215432609176309965194L
aa(lp182
g2
aL49411056283060112215432609176309965174L
aa(lp183
S'\x02\x06\r\x07\x11Y['
p184
aL314755909755515592000481005244904880710L
aa(lp185
g2
aL49411056283060112215432609176309965412L
aa(lp186
g2
aL49411056283060112215432609176309964875L
aa(lp187
S'\x00P^\x16R\\'
p188
aL266003691477286198901011725417809479375L
aa(lp189
g2
aL49411056283060112215432609176309965107L
aa(lp190
g2
aL49411056283060112215432609176309965074L
aa(lp191
g2
aL49411056283060112215432609176309965482L
aa(lp192
g2
aL49411056283060112215432609176309965255L
aa(lp193
g2
aL49411056283060112215432609176309964825L
aa(lp194
S'7G'
p195
aL261578874264819908609102035485573088483L
aa(lp196
g2
aL49411056283060112215432609176309965399L
aa(lp197
g2
aL49411056283060112215432609176309965725L
aa(lp198
S'2kr'
p199
aL223974724102701384270894320508706362290L
aa(lp200
g2
aL49411056283060112215432609176309965799L
aa(lp201
g2
aL49411056283060112215432609176309965547L
aa(lp202
g2
aL49411056283060112215432609176309965204L
aa(lp203
g2
aL49411056283060112215432609176309965286L
aa(lp204
g2
aL49411056283060112215432609176309964834L
aa(lp205
g2
aL49411056283060112215432609176309964920L
aa(lp206
g2
aL49411056283060112215432609176309965327L
aa(lp207
S'\x13U\x07\x05]\\T'
p208
aL261578874264819908609102035485573088259L
aa(lp209
g2
aL49411056283060112215432609176309965671L
aa(lp210
g2
aL49411056283060112215432609176309964926L
aa(lp211
S'\x08]H\x12X@\\'
p212
aL266003691477286198901011725417809479657L
aa(lp213
g2
aL49411056283060112215432609176309965184L
aa(lp214
g2
aL49411056283060112215432609176309964846L
aa(lp215
g2
aL49411056283060112215432609176309965360L
aa(lp216
g2
aL49411056283060112215432609176309964918L
aa(lp217
g2
aL49411056283060112215432609176309965000L
aa(lp218
g12
aL49411056283060112215432609176309965795L
aa(lp219
S'\x00HG\n\x0fUVM\x08]\x08'
p220
aL223974724102701384270894320508706362320L
aa(lp221
g2
aL49411056283060112215432609176309965766L
aa(lp222
g2
aL49411056283060112215432609176309965167L
aa(lp223
g2
aL49411056283060112215432609176309964933L
aa(lp224
g2
aL49411056283060112215432609176309965608L
aa(lp225
g2
aL49411056283060112215432609176309965308L
aa(lp226
g2
aL49411056283060112215432609176309965461L
aa(lp227
g2
aL49411056283060112215432609176309965453L
aa(lp228
S'\x16\x06\x00\x17\x11QC\x1c'
p229
aL314755909755515592000481005244904880992L
aa(lp230
g2
aL49411056283060112215432609176309964968L
aa(lp231
g12
aL49411056283060112215432609176309965448L
aa(lp232
g2
aL49411056283060112215432609176309965552L
aa(lp233
g12
aL49411056283060112215432609176309965733L
aa(lp234
S'\x02JT'
p235
aL266003691477286198901011725417809478886L
aa(lp236
g2
aL49411056283060112215432609176309965508L
aa(lp237
g2
aL49411056283060112215432609176309965378L
aa(lp238
g2
aL49411056283060112215432609176309964946L
aa(lp239
g2
aL49411056283060112215432609176309965343L
aa(lp240
g2
aL49411056283060112215432609176309965244L
aa(lp241
S'\x12L^\n\n'
p242
aL223974724102701384270894320508706361950L
aa(lp243
g2
aL49411056283060112215432609176309964886L
aa(lp244
S'\x17['
p245
aL261578874264819908609102035485573088728L
aa(lp246
S'\x14PT\x11_WJ'
p247
aL266003691477286198901011725417809479306L
aa(lp248
S' spT'
p249
aL266003691477286198901011725417809478971L
aa(lp250
g2
aL49411056283060112215432609176309964841L
aa(lp251
g2
aL49411056283060112215432609176309965402L
aa(lp252
g2
aL49411056283060112215432609176309965100L
aa(lp253
g2
aL49411056283060112215432609176309965144L
aa(lp254
g2
aL49411056283060112215432609176309965016L
aa(lp255
g2
aL49411056283060112215432609176309965060L
aa(lp256
S'\x17W'
p257
aL266003691477286198901011725417809478725L
aa(lp258
g2
aL49411056283060112215432609176309965291L
aa(lp259
g2
aL49411056283060112215432609176309965064L
aa(lp260
g2
aL49411056283060112215432609176309965183L
aa(lp261
g2
aL49411056283060112215432609176309965595L
aa(lp262
g2
aL49411056283060112215432609176309965282L
aa(lp263
g2
aL49411056283060112215432609176309965621L
aa(lp264
g2
aL49411056283060112215432609176309965250L
aa(lp265
g2
aL49411056283060112215432609176309965735L
aa(lp266
g2
aL49411056283060112215432609176309964858L
aa(lp267
S'\x02\\P\x15C[N\x01'
p268
aL266003691477286198901011725417809478777L
aa(lp269
S'"K'
p270
aL266003691477286198901011725417809479144L
aa(lp271
g2
aL49411056283060112215432609176309965601L
aa(lp272
g2
aL49411056283060112215432609176309965609L
aa(lp273
g2
aL49411056283060112215432609176309965357L
aa(lp274
g2
aL49411056283060112215432609176309964952L
aa(lp275
g12
aL49411056283060112215432609176309965503L
aa(lp276
g2
aL49411056283060112215432609176309965697L
aa(lp277
g2
aL49411056283060112215432609176309965818L
aa(lp278
g2
aL49411056283060112215432609176309965173L
aa(lp279
g2
aL49411056283060112215432609176309965237L
aa(lp280
g2
aL49411056283060112215432609176309965491L
aa(lp281
g2
aL49411056283060112215432609176309964808L
aa(lp282
g2
aL49411056283060112215432609176309965532L
aa(lp283
S'\x01YB\x00S'
p284
aL266003691477286198901011725417809478784L
aa(lp285
g2
aL49411056283060112215432609176309965752L
aa(lp286
g2
aL49411056283060112215432609176309965072L
aa(lp287
g2
aL49411056283060112215432609176309965721L
aa(lp288
g2
aL49411056283060112215432609176309965585L
aa(lp289
g2
aL49411056283060112215432609176309964900L
aa(lp290
g2
aL49411056283060112215432609176309965775L
aa(lp291
g2
aL49411056283060112215432609176309965273L
aa(lp292
g2
aL49411056283060112215432609176309965434L
aa(lp293
g2
aL49411056283060112215432609176309964940L
aa(lp294
g2
aL49411056283060112215432609176309965489L
aa(lp295
g2
aL49411056283060112215432609176309965109L
aa(lp296
g2
aL49411056283060112215432609176309965217L
aa(lp297
g2
aL49411056283060112215432609176309965120L
aa(lp298
g2
aL49411056283060112215432609176309964983L
aa(lp299
g2
aL49411056283060112215432609176309964866L
aa(lp300
g2
aL49411056283060112215432609176309964835L
aa(lp301
g2
aL49411056283060112215432609176309965674L
aa(lp302
g2
aL49411056283060112215432609176309964871L
aa(lp303
S'\x10D\x06\x02]TZ['
p304
aL261578874264819908609102035485573089243L
aa(lp305
g2
aL49411056283060112215432609176309965096L
aa(lp306
g2
aL49411056283060112215432609176309965481L
aa(lp307
g12
aL49411056283060112215432609176309965533L
aa(lp308
g2
aL49411056283060112215432609176309965132L
aa(lp309
g12
aL49411056283060112215432609176309965571L
aa(lp310
g2
aL49411056283060112215432609176309965562L
aa(lp311
g12
aL49411056283060112215432609176309964977L
aa(lp312
g2
aL49411056283060112215432609176309965284L
aa(lp313
g2
aL49411056283060112215432609176309965456L
aa(lp314
g2
aL49411056283060112215432609176309965079L
aa(lp315
g2
aL49411056283060112215432609176309964929L
aa(lp316
g2
aL49411056283060112215432609176309965185L
aa(lp317
g2
aL49411056283060112215432609176309965026L
aa(lp318
g2
aL49411056283060112215432609176309964864L
aa(lp319
g2
aL49411056283060112215432609176309965340L
aa(lp320
g2
aL49411056283060112215432609176309965791L
aa(lp321
g2
aL49411056283060112215432609176309965743L
aa(lp322
g2
aL49411056283060112215432609176309965478L
aa(lp323
g2
aL49411056283060112215432609176309965319L
aa(lp324
g2
aL49411056283060112215432609176309965593L
aa(lp325
g2
aL49411056283060112215432609176309964877L
aa(lp326
g2
aL49411056283060112215432609176309965516L
aa(lp327
g2
aL49411056283060112215432609176309964883L
aa(lp328
g2
aL49411056283060112215432609176309965259L
aa(lp329
g2
aL49411056283060112215432609176309965355L
aa(lp330
S'\x05\x06'
p331
aL261578874264819908609102035485573089116L
aa(lp332
g2
aL49411056283060112215432609176309965254L
aa(lp333
S'\x08K'
p334
aL-223974724102701384270894320508706361901L
aa(lp335
g2
aL49411056283060112215432609176309965001L
aa(lp336
g2
aL49411056283060112215432609176309964904L
aa(lp337
S'\x16\x17\x0c\x10\x02_R'
p338
aL314755909755515592000481005244904880207L
aa(lp339
g2
aL49411056283060112215432609176309965191L
aa(lp340
S'\x11\x0b\x06'
p341
aL314755909755515592000481005244904880305L
aa(lp342
g2
aL49411056283060112215432609176309965594L
aa(lp343
g2
aL49411056283060112215432609176309965380L
aa(lp344
g2
aL49411056283060112215432609176309965169L
aa(lp345
g2
aL49411056283060112215432609176309965418L
aa(lp346
S'\x10\\\x0c\x16'
p347
aL261578874264819908609102035485573088971L
aa(lp348
g2
aL49411056283060112215432609176309965334L
aa(lp349
g2
aL49411056283060112215432609176309965341L
aa(lp350
g2
aL49411056283060112215432609176309964880L
aa(lp351
g12
aL49411056283060112215432609176309965088L
aa(lp352
S'\x0b]\x07\x04'
p353
aL261578874264819908609102035485573088821L
aa(lp354
g2
aL49411056283060112215432609176309965219L
aa(lp355
g2
aL49411056283060112215432609176309964873L
aa(lp356
g2
aL49411056283060112215432609176309965161L
aa(lp357
g2
aL49411056283060112215432609176309965090L
aa(lp358
S'\rA\x0e\x03Q@'
p359
aL261578874264819908609102035485573088312L
aa(lp360
g2
aL49411056283060112215432609176309965691L
aa(lp361
g2
aL49411056283060112215432609176309965738L
aa(lp362
g2
aL49411056283060112215432609176309965384L
aa(lp363
g2
aL49411056283060112215432609176309965702L
aa(lp364
g12
aL49411056283060112215432609176309965398L
aa(lp365
g2
aL49411056283060112215432609176309965140L
aa(lp366
g2
aL49411056283060112215432609176309964995L
aa(lp367
S'\rW_HVVY\x14M\rB\x06'
p368
aL266003691477286198901011725417809479270L
aa(lp369
S'\r\x02\x15\x07'
p370
aL314755909755515592000481005244904880877L
aa(lp371
g2
aL49411056283060112215432609176309965101L
aa(lp372
g2
aL49411056283060112215432609176309965694L
aa(lp373
S'\x10]R\x10EW'
p374
aL266003691477286198901011725417809479447L
aa(lp375
g2
aL49411056283060112215432609176309965500L
aa(lp376
g2
aL49411056283060112215432609176309965045L
aa(lp377
S'\x01\x0c\x06\x11'
p378
aL314755909755515592000481005244904880778L
aa(lp379
g2
aL49411056283060112215432609176309964863L
aa(lp380
g2
aL49411056283060112215432609176309965222L
aa(lp381
g2
aL49411056283060112215432609176309965688L
aa(lp382
g2
aL49411056283060112215432609176309965666L
aa(lp383
g2
aL49411056283060112215432609176309965782L
aa(lp384
S'\x02VU'
p385
aL-266003691477286198901011725417809479213L
aa(lp386
g2
aL49411056283060112215432609176309965567L
aa(lp387
g2
aL49411056283060112215432609176309964870L
aa(lp388
g2
aL49411056283060112215432609176309965157L
aa(lp389
g2
aL49411056283060112215432609176309965062L
aa(lp390
S'\x10\x10\n\x0c\x04'
p391
aL314755909755515592000481005244904880153L
aa(lp392
g12
aL49411056283060112215432609176309964975L
aa(lp393
g2
aL49411056283060112215432609176309965439L
aa(lp394
S'R'
p395
aL261578874264819908609102035485573088939L
aa(lp396
g2
aL49411056283060112215432609176309965706L
aa(lp397
g2
aL49411056283060112215432609176309964868L
aa(lp398
S'\x0c\r\x17\x17\nL^\x13Q\x0eL'
p399
aL314755909755515592000481005244904880755L
aa(lp400
g2
aL49411056283060112215432609176309965592L
aa(lp401
g12
aL49411056283060112215432609176309965654L
aa(lp402
g2
aL49411056283060112215432609176309965698L
aa(lp403
g2
aL49411056283060112215432609176309965346L
aa(lp404
g2
aL49411056283060112215432609176309965117L
aa(lp405
g2
aL49411056283060112215432609176309965168L
aa(lp406
g2
aL49411056283060112215432609176309965630L
aa(lp407
g2
aL49411056283060112215432609176309965020L
aa(lp408
g2
aL49411056283060112215432609176309965301L
aa(lp409
g2
aL49411056283060112215432609176309965190L
aa(lp410
g2
aL49411056283060112215432609176309965765L
aa(lp411
g12
aL49411056283060112215432609176309964878L
aa(lp412
g2
aL49411056283060112215432609176309965649L
aa(lp413
g2
aL49411056283060112215432609176309965123L
aa(lp414
g2
aL49411056283060112215432609176309964936L
aa(lp415
g2
aL49411056283060112215432609176309964885L
aa(lp416
g2
aL49411056283060112215432609176309965732L
aa(lp417
S'\x0c\r\x15\x07\x11LR\x01'
p418
aL314755909755515592000481005244904880494L
aa(lp419
S'&("S'
p420
aL314755909755515592000481005244904880803L
aa(lp421
g12
aL49411056283060112215432609176309965014L
aa(lp422
S'\x01\x1a\r\x03\x0eQT'
p423
aL314755909755515592000481005244904880196L
aa(lp424
g2
aL49411056283060112215432609176309964907L
aa(lp425
g2
aL49411056283060112215432609176309965029L
aa(lp426
g2
aL49411056283060112215432609176309965354L
aa(lp427
g2
aL49411056283060112215432609176309965667L
aa(lp428
g2
aL49411056283060112215432609176309964839L
aa(lp429
g2
aL49411056283060112215432609176309964869L
aa(lp430
S'\x10]\x0e\x11X[PQ\x15I'
p431
aL261578874264819908609102035485573088647L
aa(lp432
g2
aL49411056283060112215432609176309965145L
aa(lp433
g2
aL49411056283060112215432609176309965318L
aa(lp434
g2
aL49411056283060112215432609176309965681L
aa(lp435
g2
aL49411056283060112215432609176309965540L
aa(lp436
g2
aL49411056283060112215432609176309965091L
aa(lp437
g2
aL49411056283060112215432609176309965389L
aa(lp438
S'\x13JT\x13^]M\x17'
p439
aL266003691477286198901011725417809479660L
aa(lp440
g2
aL49411056283060112215432609176309964838L
aa(lp441
g2
aL49411056283060112215432609176309965575L
aa(lp442
g2
aL49411056283060112215432609176309965712L
aa(lp443
g2
aL49411056283060112215432609176309964987L
aa(lp444
g2
aL49411056283060112215432609176309965290L
aa(lp445
g12
aL49411056283060112215432609176309965730L
aa(lp446
g2
aL49411056283060112215432609176309965771L
aa(lp447
g2
aL49411056283060112215432609176309965239L
aa(lp448
g2
aL49411056283060112215432609176309965193L
aa(lp449
g2
aL49411056283060112215432609176309965229L
aa(lp450
g2
aL49411056283060112215432609176309965668L
aa(lp451
g2
aL49411056283060112215432609176309965135L
aa(lp452
g2
aL49411056283060112215432609176309965572L
aa(lp453
S'\x06\x02\r'
p454
aL314755909755515592000481005244904880600L
aa(lp455
g12
aL49411056283060112215432609176309965404L
aa(lp456
S'\x07Q\x0f\x04@[\\V'
p457
aL261578874264819908609102035485573088541L
aa(lp458
S'\x16\x0e\x02\x0e\x0f'
p459
aL314755909755515592000481005244904881028L
aa(lp460
g2
aL49411056283060112215432609176309965665L
aa(lp461
g2
aL49411056283060112215432609176309965612L
aa(lp462
g2
aL49411056283060112215432609176309965095L
aa(lp463
S'\x12]V\x14\x05^'
p464
aL223974724102701384270894320508706361871L
aa(lp465
g2
aL49411056283060112215432609176309964935L
aa(lp466
g2
aL49411056283060112215432609176309965754L
aa(lp467
S'\x03]'
p468
aL223974724102701384270894320508706362265L
aa(lp469
g2
aL49411056283060112215432609176309965786L
aa(lp470
g2
aL49411056283060112215432609176309965479L
aa(lp471
g2
aL49411056283060112215432609176309965750L
aa(lp472
g12
aL49411056283060112215432609176309964947L
aa(lp473
S'\x0cZ\x0f\x18'
p474
aL261578874264819908609102035485573088345L
aa(lp475
S'\x12MT\x0e'
p476
aL223974724102701384270894320508706361422L
aa(lp477
g2
aL49411056283060112215432609176309965315L
aa(lp478
g2
aL49411056283060112215432609176309964881L
aa(lp479
g2
aL49411056283060112215432609176309964911L
aa(lp480
g2
aL49411056283060112215432609176309964860L
aa(lp481
g12
aL49411056283060112215432609176309965542L
aa(lp482
g2
aL49411056283060112215432609176309965727L
aa(lp483
g2
aL49411056283060112215432609176309964829L
aa(lp484
S'\x04VT\x14\x1fFCP\x0e\\'
p485
aL223974724102701384270894320508706361985L
aa(lp486
g2
aL49411056283060112215432609176309965375L
aa(lp487
S'\x12\x0b\n\x01\x0b'
p488
aL314755909755515592000481005244904880784L
aa(lp489
S'\x08LD'
p490
aL223974724102701384270894320508706362092L
aa(lp491
S'\x06\x11\x1a\x12\x17WP\x17U\x12]\n\x06'
p492
aL314755909755515592000481005244904880338L
aa(lp493
g2
aL49411056283060112215432609176309965781L
aa(lp494
g2
aL49411056283060112215432609176309965444L
aa(lp495
g2
aL49411056283060112215432609176309965433L
aa(lp496
g12
aL49411056283060112215432609176309965574L
aa(lp497
g2
aL49411056283060112215432609176309965510L
aa(lp498
g2
aL49411056283060112215432609176309965774L
aa(lp499
g2
aL49411056283060112215432609176309965816L
aa(lp500
g2
aL49411056283060112215432609176309964939L
aa(lp501
g2
aL49411056283060112215432609176309965692L
aa(lp502
g2
aL49411056283060112215432609176309965383L
aa(lp503
S'\x12]V\x14\x05^R]'
p504
aL223974724102701384270894320508706362310L
aa(lp505
g2
aL49411056283060112215432609176309965709L
aa(lp506
g2
aL49411056283060112215432609176309965386L
aa(lp507
S'\nK'
p508
aL266003691477286198901011725417809479116L
aa(lp509
g2
aL49411056283060112215432609176309965247L
aa(lp510
g2
aL49411056283060112215432609176309965803L
aa(lp511
g2
aL49411056283060112215432609176309965260L
aa(lp512
g2
aL49411056283060112215432609176309965243L
aa(lp513
g2
aL49411056283060112215432609176309965342L
aa(lp514
g2
aL49411056283060112215432609176309965089L
aa(lp515
g2
aL49411056283060112215432609176309965475L
aa(lp516
g2
aL49411056283060112215432609176309965347L
aa(lp517
g2
aL49411056283060112215432609176309964992L
aa(lp518
g2
aL49411056283060112215432609176309965520L
aa(lp519
S'\x10\r\x10\x17\nLV\x07X\x07'
p520
aL314755909755515592000481005244904880197L
aa(lp521
S'2]V\x14\x05^V[\rW'
p522
aL223974724102701384270894320508706361736L
aa(lp523
g2
aL49411056283060112215432609176309965440L
aa(lp524
g2
aL49411056283060112215432609176309965249L
aa(lp525
g2
aL49411056283060112215432609176309965046L
aa(lp526
g2
aL49411056283060112215432609176309965271L
aa(lp527
g2
aL49411056283060112215432609176309964994L
aa(lp528
g2
aL49411056283060112215432609176309965119L
aa(lp529
g2
aL49411056283060112215432609176309964831L
aa(lp530
S'\x0eNR\x14'
p531
aL223974724102701384270894320508706361588L
aa(lp532
S'7\\\x06'
p533
aL261578874264819908609102035485573088701L
aa(lp534
g2
aL49411056283060112215432609176309965138L
aa(lp535
S'\x16\x00\x0b\x07\x0e]'
p536
aL314755909755515592000481005244904880975L
aa(lp537
g2
aL49411056283060112215432609176309965524L
aa(lp538
g2
aL49411056283060112215432609176309965670L
aa(lp539
g2
aL49411056283060112215432609176309965693L
aa(lp540
S'\n\x13\x17\x0b\x0eY['
p541
aL314755909755515592000481005244904880994L
aa(lp542
S'\x08L'
p543
aL223974724102701384270894320508706362174L
aa(lp544
g2
aL49411056283060112215432609176309965359L
aa(lp545
g2
aL49411056283060112215432609176309965514L
aa(lp546
S'\x11]B\x15RQL'
p547
aL266003691477286198901011725417809479654L
aa(lp548
g2
aL49411056283060112215432609176309965400L
aa(lp549
g2
aL49411056283060112215432609176309964934L
aa(lp550
g2
aL49411056283060112215432609176309965264L
aa(lp551
g2
aL49411056283060112215432609176309965137L
aa(lp552
S' spW'
p553
aL266003691477286198901011725417809478954L
aa(lp554
g2
aL49411056283060112215432609176309965202L
aa(lp555
g2
aL49411056283060112215432609176309965281L
aa(lp556
g2
aL49411056283060112215432609176309965469L
aa(lp557
g2
aL49411056283060112215432609176309965063L
aa(lp558
S'\nV'
p559
aL266003691477286198901011725417809478828L
aa(lp560
g12
aL49411056283060112215432609176309965042L
aa(lp561
g2
aL49411056283060112215432609176309964845L
aa(lp562
g2
aL49411056283060112215432609176309965776L
aa(lp563
g12
aL49411056283060112215432609176309965396L
aa(lp564
S'\x02TX\x13\x02'
p565
aL223974724102701384270894320508706362302L
aa(lp566
g2
aL49411056283060112215432609176309965211L
aa(lp567
g2
aL49411056283060112215432609176309965382L
aa(lp568
g2
aL49411056283060112215432609176309965240L
aa(lp569
g2
aL49411056283060112215432609176309965536L
aa(lp570
g2
aL49411056283060112215432609176309965483L
aa(lp571
g2
aL49411056283060112215432609176309965385L
aa(lp572
g2
aL49411056283060112215432609176309965306L
aa(lp573
S'\x0b\x0c\rO\x02\\V\x15@\x0bC\x06'
p574
aL314755909755515592000481005244904880761L
aa(lp575
g2
aL49411056283060112215432609176309965764L
aa(lp576
S'\x0cM\x06L'
p577
aL314755909755515592000481005244904880557L
aa(lp578
g2
aL49411056283060112215432609176309965252L
aa(lp579
g2
aL49411056283060112215432609176309965331L
aa(lp580
g2
aL49411056283060112215432609176309965463L
aa(lp581
g2
aL49411056283060112215432609176309965494L
aa(lp582
g2
aL49411056283060112215432609176309965296L
aa(lp583
S'\x15PR'
p584
aL223974724102701384270894320508706362039L
aa(lp585
S'\nG'
p586
aL261578874264819908609102035485573088761L
aa(lp587
g2
aL49411056283060112215432609176309964949L
aa(lp588
S'\x15W'
p589
aL223974724102701384270894320508706361640L
aa(lp590
g2
aL49411056283060112215432609176309964999L
aa(lp591
g12
aL49411056283060112215432609176309965129L
aa(lp592
g2
aL49411056283060112215432609176309965435L
aa(lp593
g2
aL49411056283060112215432609176309965723L
aa(lp594
S'\nZ\x07\x04L'
p595
aL261578874264819908609102035485573088833L
aa(lp596
g2
aL49411056283060112215432609176309965425L
aa(lp597
g2
aL49411056283060112215432609176309965486L
aa(lp598
S'\x02YY'
p599
aL223974724102701384270894320508706361378L
aa(lp600
g2
aL49411056283060112215432609176309965370L
aa(lp601
g2
aL49411056283060112215432609176309965498L
aa(lp602
g12
aL49411056283060112215432609176309965407L
aa(lp603
g2
aL49411056283060112215432609176309965087L
aa(lp604
g2
aL49411056283060112215432609176309965495L
aa(lp605
g2
aL49411056283060112215432609176309965561L
aa(lp606
g2
aL49411056283060112215432609176309965256L
aa(lp607
S'\nVU\x00O'
p608
aL266003691477286198901011725417809479034L
aa(lp609
S'\x12LX\x14\x07QR'
p610
aL223974724102701384270894320508706362275L
aa(lp611
g2
aL49411056283060112215432609176309965164L
aa(lp612
g2
aL49411056283060112215432609176309965678L
aa(lp613
g12
aL49411056283060112215432609176309965272L
aa(lp614
g2
aL49411056283060112215432609176309965238L
aa(lp615
g2
aL49411056283060112215432609176309965449L
aa(lp616
g2
aL49411056283060112215432609176309965714L
aa(lp617
g2
aL49411056283060112215432609176309965126L
aa(lp618
g2
aL49411056283060112215432609176309964899L
aa(lp619
S'\x04VT\x14\x1fFC'
p620
aL223974724102701384270894320508706362339L
aa(lp621
g2
aL49411056283060112215432609176309965452L
aa(lp622
g12
aL49411056283060112215432609176309965263L
aa(lp623
g2
aL49411056283060112215432609176309965798L
aa(lp624
g2
aL49411056283060112215432609176309965376L
aa(lp625
g2
aL49411056283060112215432609176309964806L
aa(lp626
S'\x08Q\x1a\x16[@W'
p627
aL261578874264819908609102035485573088877L
aa(lp628
g2
aL49411056283060112215432609176309965086L
aa(lp629
g2
aL49411056283060112215432609176309965602L
aa(lp630
g12
aL49411056283060112215432609176309965212L
aa(lp631
g2
aL49411056283060112215432609176309964862L
aa(lp632
g2
aL49411056283060112215432609176309965235L
aa(lp633
g12
aL49411056283060112215432609176309964964L
aa(lp634
g2
aL49411056283060112215432609176309964957L
aa(lp635
g2
aL49411056283060112215432609176309965158L
aa(lp636
g2
aL49411056283060112215432609176309965231L
aa(lp637
g2
aL49411056283060112215432609176309965624L
aa(lp638
g2
aL49411056283060112215432609176309965560L
aa(lp639
S'\x02T^\x03\x08B'
p640
aL223974724102701384270894320508706361775L
aa(lp641
S'\x04'
p642
aL314755909755515592000481005244904880314L
aa(lp643
g2
aL49411056283060112215432609176309965598L
aa(lp644
g2
aL49411056283060112215432609176309965811L
aa(lp645
g12
aL49411056283060112215432609176309965392L
aa(lp646
S'\x11]B\x10[FK'
p647
aL266003691477286198901011725417809479565L
aa(lp648
g2
aL49411056283060112215432609176309965446L
aa(lp649
S'7PT'
p650
aL266003691477286198901011725417809479215L
aa(lp651
g2
aL49411056283060112215432609176309964889L
aa(lp652
g2
aL49411056283060112215432609176309965374L
aa(lp653
g2
aL49411056283060112215432609176309965328L
aa(lp654
g2
aL49411056283060112215432609176309965615L
aa(lp655
g2
aL49411056283060112215432609176309965081L
aa(lp656
g2
aL49411056283060112215432609176309965746L
aa(lp657
g2
aL49411056283060112215432609176309964823L
aa(lp658
g2
aL49411056283060112215432609176309965298L
aa(lp659
g2
aL49411056283060112215432609176309965268L
aa(lp660
g2
aL49411056283060112215432609176309965310L
aa(lp661
g2
aL49411056283060112215432609176309965797L
aa(lp662
S'\t\n\x0e\x0b\x17YC\x0c[\x0cF'
p663
aL314755909755515592000481005244904880404L
aa(lp664
g2
aL49411056283060112215432609176309965353L
aa(lp665
g12
aL49411056283060112215432609176309965783L
aa(lp666
g2
aL49411056283060112215432609176309965288L
aa(lp667
g2
aL49411056283060112215432609176309964905L
aa(lp668
S'\x02'
p669
aL261578874264819908609102035485573088837L
aa(lp670
g2
aL49411056283060112215432609176309965807L
aa(lp671
S'\x14VC\x14\x13EC\\\x05'
p672
aL223974724102701384270894320508706361912L
aa(lp673
g2
aL49411056283060112215432609176309965179L
aa(lp674
g2
aL49411056283060112215432609176309964842L
aa(lp675
g2
aL49411056283060112215432609176309965707L
aa(lp676
g2
aL49411056283060112215432609176309965362L
aa(lp677
g2
aL49411056283060112215432609176309964840L
aa(lp678
S'\x02Z\x07'
p679
aL-261578874264819908609102035485573088412L
aa(lp680
g2
aL49411056283060112215432609176309965069L
aa(lp681
S'\x17\\\x11\x04Q'
p682
aL261578874264819908609102035485573089055L
aa(lp683
g2
aL49411056283060112215432609176309965283L
aa(lp684
g2
aL49411056283060112215432609176309964801L
aa(lp685
g2
aL49411056283060112215432609176309965198L
aa(lp686
g2
aL49411056283060112215432609176309965739L
aa(lp687
g12
aL49411056283060112215432609176309964959L
aa(lp688
g2
aL49411056283060112215432609176309965372L
aa(lp689
g2
aL49411056283060112215432609176309965195L
aa(lp690
S'\x0cB\x06\x13'
p691
aL261578874264819908609102035485573088450L
aa(lp692
S'7P'
p693
aL261578874264819908609102035485573089083L
aa(lp694
g2
aL49411056283060112215432609176309965710L
aa(lp695
g2
aL49411056283060112215432609176309965142L
aa(lp696
g2
aL49411056283060112215432609176309965596L
aa(lp697
S'\nZ'
p698
aL261578874264819908609102035485573089233L
aa(lp699
g2
aL49411056283060112215432609176309965744L
aa(lp700
g12
aL49411056283060112215432609176309965146L
aa(lp701
g2
aL49411056283060112215432609176309965065L
aa(lp702
g12
aL49411056283060112215432609176309965720L
aa(lp703
S'*\x16\x11'
p704
aL314755909755515592000481005244904881033L
aa(lp705
g2
aL49411056283060112215432609176309965515L
aa(lp706
g2
aL49411056283060112215432609176309965171L
aa(lp707
S'\x12]T\x13\x14S[@'
p708
aL223974724102701384270894320508706361583L
aa(lp709
g12
aL49411056283060112215432609176309965285L
aa(lp710
g2
aL49411056283060112215432609176309964882L
aa(lp711
g2
aL49411056283060112215432609176309965155L
aa(lp712
S'\x06\x0c\r\x11\x17JB\x06@\x0bZ\r'
p713
aL314755909755515592000481005244904880616L
aa(lp714
g2
aL49411056283060112215432609176309964925L
aa(lp715
g2
aL49411056283060112215432609176309965051L
aa(lp716
g2
aL49411056283060112215432609176309965265L
aa(lp717
g2
aL49411056283060112215432609176309965770L
aa(lp718
g2
aL49411056283060112215432609176309965429L
aa(lp719
g2
aL49411056283060112215432609176309965280L
aa(lp720
S'\x05\x07'
p721
aL261578874264819908609102035485573088651L
aa(lp722
g12
aL49411056283060112215432609176309965387L
aa(lp723
S'\x04\x17\x17\x03\x00SD'
p724
aL314755909755515592000481005244904880427L
aa(lp725
g2
aL49411056283060112215432609176309965762L
aa(lp726
g2
aL49411056283060112215432609176309965215L
aa(lp727
S'\x0cV]\x1c'
p728
aL266003691477286198901011725417809479399L
aa(lp729
S'\x15PV\x12'
p730
aL223974724102701384270894320508706361438L
aa(lp731
g2
aL49411056283060112215432609176309965122L
aa(lp732
g2
aL49411056283060112215432609176309965480L
aa(lp733
S'\x11\x06\x00\n\rQF\x10Q\x11'
p734
aL314755909755515592000481005244904880570L
aa(lp735
S'\x0fYE\x11R@'
p736
aL266003691477286198901011725417809479358L
aa(lp737
g12
aL49411056283060112215432609176309965460L
aa(lp738
g2
aL49411056283060112215432609176309965021L
aa(lp739
g2
aL49411056283060112215432609176309965755L
aa(lp740
S'\x06NT\x0b'
p741
aL266003691477286198901011725417809479493L
aa(lp742
g2
aL49411056283060112215432609176309965335L
aa(lp743
g2
aL49411056283060112215432609176309965232L
aa(lp744
S'\x01A\n\r@'
p745
aL261578874264819908609102035485573088698L
aa(lp746
S'\x0eMC\x15\tCEZ\x04'
p747
aL223974724102701384270894320508706361904L
aa(lp748
g2
aL49411056283060112215432609176309965531L
aa(lp749
g2
aL49411056283060112215432609176309965084L
aa(lp750
g2
aL49411056283060112215432609176309964833L
aa(lp751
S'\x11Q\x10\x11QQGQ\x17U'
p752
aL261578874264819908609102035485573088636L
aa(lp753
g2
aL49411056283060112215432609176309965472L
aa(lp754
S'*Z'
p755
aL261578874264819908609102035485573089061L
aa(lp756
S'\x05WC\x08R@'
p757
aL266003691477286198901011725417809478930L
aa(lp758
g12
aL49411056283060112215432609176309964814L
aa(lp759
g2
aL49411056283060112215432609176309965147L
aa(lp760
g2
aL49411056283060112215432609176309965220L
aa(lp761
g2
aL49411056283060112215432609176309964912L
aa(lp762
g2
aL49411056283060112215432609176309965682L
aa(lp763
g2
aL49411056283060112215432609176309965391L
aa(lp764
S'\x0cZB\x00ED]\x00'
p765
aL266003691477286198901011725417809478719L
aa(lp766
g2
aL49411056283060112215432609176309964943L
aa(lp767
S'\x00Z^\n\x0fBN'
p768
aL223974724102701384270894320508706362285L
aa(lp769
g2
aL49411056283060112215432609176309965329L
aa(lp770
g2
aL49411056283060112215432609176309965214L
aa(lp771
S'\x10W\x0b\x04YW'
p772
aL261578874264819908609102035485573089095L
aa(lp773
g12
aL49411056283060112215432609176309965787L
aa(lp774
g2
aL49411056283060112215432609176309965528L
aa(lp775
g12
aL49411056283060112215432609176309965442L
aa(lp776
S'\x15\x11\x02\x01\x17QT\x04X'
p777
aL314755909755515592000481005244904880544L
aa(lp778
g2
aL49411056283060112215432609176309965576L
aa(lp779
g2
aL49411056283060112215432609176309965234L
aa(lp780
g2
aL49411056283060112215432609176309965631L
aa(lp781
g2
aL49411056283060112215432609176309964824L
aa(lp782
S'\x07U\x17\x00'
p783
aL261578874264819908609102035485573088557L
aa(lp784
g2
aL49411056283060112215432609176309965573L
aa(lp785
S'\x02V^\x11_WJ'
p786
aL266003691477286198901011725417809479318L
aa(lp787
g2
aL49411056283060112215432609176309964909L
aa(lp788
S'-[\x17\x04'
p789
aL261578874264819908609102035485573088510L
aa(lp790
g2
aL49411056283060112215432609176309965717L
aa(lp791
g2
aL49411056283060112215432609176309964852L
aa(lp792
g2
aL49411056283060112215432609176309965111L
aa(lp793
g2
aL49411056283060112215432609176309965800L
aa(lp794
g2
aL49411056283060112215432609176309965779L
aa(lp795
g2
aL49411056283060112215432609176309964809L
aa(lp796
g2
aL49411056283060112215432609176309964914L
aa(lp797
S'\x08Q\x1a\x16[@WK'
p798
aL261578874264819908609102035485573088934L
aa(lp799
g2
aL49411056283060112215432609176309964986L
aa(lp800
g2
aL49411056283060112215432609176309965623L
aa(lp801
g2
aL49411056283060112215432609176309964938L
aa(lp802
S'\x17\\\x02\x15'
p803
aL261578874264819908609102035485573088887L
aa(lp804
S'\x0cJ'
p805
aL266003691477286198901011725417809479083L
aa(lp806
g2
aL49411056283060112215432609176309965253L
aa(lp807
g2
aL49411056283060112215432609176309965812L
aa(lp808
S'\n\x13\x06\x10\x02L^\nZ\x11'
p809
aL314755909755515592000481005244904880401L
aa(lp810
g2
aL49411056283060112215432609176309964895L
aa(lp811
g2
aL49411056283060112215432609176309964921L
aa(lp812
g2
aL49411056283060112215432609176309965246L
aa(lp813
g2
aL49411056283060112215432609176309965569L
aa(lp814
g2
aL49411056283060112215432609176309965277L
aa(lp815
g2
aL49411056283060112215432609176309965810L
aa(lp816
g2
aL49411056283060112215432609176309965603L
aa(lp817
g2
aL49411056283060112215432609176309965003L
aa(lp818
g2
aL49411056283060112215432609176309964894L
aa(lp819
g2
aL49411056283060112215432609176309965304L
aa(lp820
g2
aL49411056283060112215432609176309965719L
aa(lp821
g2
aL49411056283060112215432609176309965650L
aa(lp822
g2
aL49411056283060112215432609176309965036L
aa(lp823
g2
aL49411056283060112215432609176309965133L
aa(lp824
g2
aL49411056283060112215432609176309965005L
aa(lp825
S'\x17\\\x06'
p826
aL261578874264819908609102035485573089244L
aa(lp827
g2
aL49411056283060112215432609176309965761L
aa(lp828
g2
aL49411056283060112215432609176309965690L
aa(lp829
g2
aL49411056283060112215432609176309965685L
aa(lp830
g2
aL49411056283060112215432609176309965043L
aa(lp831
g2
aL49411056283060112215432609176309965445L
aa(lp832
g2
aL49411056283060112215432609176309965459L
aa(lp833
g2
aL49411056283060112215432609176309964954L
aa(lp834
g2
aL49411056283060112215432609176309964945L
aa(lp835
g2
aL49411056283060112215432609176309965032L
aa(lp836
S'\x04MP\x17V\\L\x01\\\x17'
p837
aL266003691477286198901011725417809478770L
aa(lp838
g2
aL49411056283060112215432609176309965363L
aa(lp839
S'\x07[\x00\x14YW]L\x12'
p840
aL261578874264819908609102035485573089021L
aa(lp841
g12
aL49411056283060112215432609176309965037L
aa(lp842
g2
aL49411056283060112215432609176309965098L
aa(lp843
g2
aL49411056283060112215432609176309965522L
aa(lp844
S'\x10Q\x02\x13WZ'
p845
aL261578874264819908609102035485573088885L
aa(lp846
g2
aL49411056283060112215432609176309964967L
aa(lp847
g2
aL49411056283060112215432609176309965485L
aa(lp848
g2
aL49411056283060112215432609176309964937L
aa(lp849
S'1\x0b\x0c\x17\x04P'
p850
aL314755909755515592000481005244904880841L
aa(lp851
S'\x0c\x10'
p852
aL314755909755515592000481005244904880627L
aa(lp853
g2
aL49411056283060112215432609176309965061L
aa(lp854
g12
aL49411056283060112215432609176309965490L
aa(lp855
g2
aL49411056283060112215432609176309964850L
aa(lp856
g12
aL49411056283060112215432609176309965553L
aa(lp857
S'\x08\x06\x02\x0c\x10'
p858
aL314755909755515592000481005244904880537L
aa(lp859
g2
aL49411056283060112215432609176309965024L
aa(lp860
S'\x05]\x0f\x04\x19E\\J\x05'
p861
aL261578874264819908609102035485573089260L
aa(lp862
g12
aL49411056283060112215432609176309964991L
aa(lp863
g2
aL49411056283060112215432609176309965085L
aa(lp864
g2
aL49411056283060112215432609176309965013L
aa(lp865
g2
aL49411056283060112215432609176309965544L
aa(lp866
S'\x05YC\x07'
p867
aL223974724102701384270894320508706361692L
aa(lp868
g2
aL49411056283060112215432609176309965613L
aa(lp869
g2
aL49411056283060112215432609176309965669L
aa(lp870
g2
aL49411056283060112215432609176309964805L
aa(lp871
g2
aL49411056283060112215432609176309965228L
aa(lp872
g2
aL49411056283060112215432609176309965539L
aa(lp873
S'\x14QE\r'
p874
aL266003691477286198901011725417809478713L
aa(lp875
S'\x00P^\x16R\\\x15\x0f\\\x1dC\x0c@\x02'
p876
aL266003691477286198901011725417809478748L
aa(lp877
g2
aL49411056283060112215432609176309964998L
aa(lp878
g2
aL49411056283060112215432609176309965364L
aa(lp879
g2
aL49411056283060112215432609176309965651L
aa(lp880
g2
aL49411056283060112215432609176309965757L
aa(lp881
g2
aL49411056283060112215432609176309965251L
aa(lp882
g2
aL49411056283060112215432609176309965307L
aa(lp883
g2
aL49411056283060112215432609176309964819L
aa(lp884
g2
aL49411056283060112215432609176309965517L
aa(lp885
g2
aL49411056283060112215432609176309965030L
aa(lp886
S'\x16QC\x0e\tCC'
p887
aL223974724102701384270894320508706362318L
aa(lp888
g2
aL49411056283060112215432609176309965580L
aa(lp889
g2
aL49411056283060112215432609176309965073L
aa(lp890
g2
aL49411056283060112215432609176309964922L
aa(lp891
S'\x11JX\x10\x0fRRK'
p892
aL223974724102701384270894320508706361718L
aa(lp893
g2
aL49411056283060112215432609176309965011L
aa(lp894
S'\x02F\x11\x00M'
p895
aL261578874264819908609102035485573088930L
aa(lp896
g2
aL49411056283060112215432609176309965299L
aa(lp897
S'\x08UZ\x03\x02_VM\x04'
p898
aL223974724102701384270894320508706361466L
aa(lp899
g2
aL49411056283060112215432609176309965677L
aa(lp900
S'"P'
p901
aL261578874264819908609102035485573088997L
aa(lp902
g2
aL49411056283060112215432609176309965736L
aa(lp903
g2
aL49411056283060112215432609176309965427L
aa(lp904
g12
aL49411056283060112215432609176309965784L
aa(lp905
g2
aL49411056283060112215432609176309965230L
aa(lp906
g12
aL49411056283060112215432609176309964960L
aa(lp907
S'\x0c^'
p908
aL266003691477286198901011725417809479407L
aa(lp909
g2
aL49411056283060112215432609176309965617L
aa(lp910
g2
aL49411056283060112215432609176309965530L
aa(lp911
g12
aL49411056283060112215432609176309964876L
aa(lp912
g12
aL49411056283060112215432609176309965324L
aa(lp913
g2
aL49411056283060112215432609176309965788L
aa(lp914
S'\x06\x0f\n\x07\rLD'
p915
aL314755909755515592000481005244904880610L
aa(lp916
g12
aL49411056283060112215432609176309965326L
aa(lp917
S'\x02X\x10\x04'
p918
aL261578874264819908609102035485573089109L
aa(lp919
g2
aL49411056283060112215432609176309965134L
aa(lp920
S'\x0cZ'
p921
aL261578874264819908609102035485573088957L
aa(lp922
g2
aL49411056283060112215432609176309965768L
aa(lp923
g2
aL49411056283060112215432609176309964822L
aa(lp924
g2
aL49411056283060112215432609176309965156L
aa(lp925
g2
aL49411056283060112215432609176309965406L
aa(lp926
g2
aL49411056283060112215432609176309965731L
aa(lp927
g2
aL49411056283060112215432609176309965813L
aa(lp928
g2
aL49411056283060112215432609176309964932L
aa(lp929
S'\x07[\x00\x14YW]L'
p930
aL261578874264819908609102035485573088809L
aa(lp931
g2
aL49411056283060112215432609176309965008L
aa(lp932
g2
aL49411056283060112215432609176309965814L
aa(lp933
g2
aL49411056283060112215432609176309965581L
aa(lp934
g2
aL49411056283060112215432609176309965622L
aa(lp935
g2
aL49411056283060112215432609176309965338L
aa(lp936
g12
aL49411056283060112215432609176309964993L
aa(lp937
g2
aL49411056283060112215432609176309965804L
aa(lp938
g2
aL49411056283060112215432609176309965502L
aa(lp939
g2
aL49411056283060112215432609176309965729L
aa(lp940
S'\x16\x06\x00\x17\x11]'
p941
aL314755909755515592000481005244904880932L
aa(lp942
g2
aL49411056283060112215432609176309965817L
aa(lp943
g2
aL49411056283060112215432609176309964896L
aa(lp944
g2
aL49411056283060112215432609176309965099L
aa(lp945
S'\x12AZ\x0b\x03BEP\x02'
p946
aL223974724102701384270894320508706362335L
aa(lp947
g2
aL49411056283060112215432609176309965794L
aa(lp948
S'\x0cV'
p949
aL266003691477286198901011725417809479400L
aa(lp950
g2
aL49411056283060112215432609176309965325L
aa(lp951
g2
aL49411056283060112215432609176309965604L
aa(lp952
g2
aL49411056283060112215432609176309965618L
aa(lp953
g2
aL49411056283060112215432609176309965507L
aa(lp954
g2
aL49411056283060112215432609176309965424L
aa(lp955
g2
aL49411056283060112215432609176309964893L
aa(lp956
g2
aL49411056283060112215432609176309965172L
aa(lp957
g12
aL49411056283060112215432609176309965505L
aa(lp958
g2
aL49411056283060112215432609176309965203L
aa(lp959
g2
aL49411056283060112215432609176309964811L
aa(lp960
S'\n\x05'
p961
aL314755909755515592000481005244904880289L
aa(lp962
g12
aL49411056283060112215432609176309965599L
aa(lp963
g2
aL49411056283060112215432609176309965466L
aa(lp964
g2
aL49411056283060112215432609176309965108L
aa(lp965
g12
aL49411056283060112215432609176309964800L
aa(lp966
g2
aL49411056283060112215432609176309964990L
aa(lp967
S'\x17PT'
p968
aL266003691477286198901011725417809478885L
aa(lp969
g2
aL49411056283060112215432609176309965388L
aa(lp970
g2
aL49411056283060112215432609176309965050L
aa(lp971
S'\x04VV\x04\nSD'
p972
aL223974724102701384270894320508706362355L
aa(lp973
S'\x01\n\x11\x07\x00L'
p974
aL314755909755515592000481005244904880298L
aa(lp975
g2
aL49411056283060112215432609176309965410L
aa(lp976
g2
aL-49411056283060112215432609176309964984L
aa(lp977
S'\x11Q\x02\r'
p978
aL261578874264819908609102035485573088931L
aa(lp979
g2
aL49411056283060112215432609176309964931L
aa(lp980
g2
aL49411056283060112215432609176309965153L
aa(lp981
g2
aL49411056283060112215432609176309964891L
aa(lp982
g2
aL49411056283060112215432609176309965523L
aa(lp983
g2
aL49411056283060112215432609176309965199L
aa(lp984
S'\x00\x1b\x13\x0e\n[^\x11X\x1b'
p985
aL314755909755515592000481005244904881124L
aa(lp986
g2
aL49411056283060112215432609176309965192L
aa(lp987
g2
aL49411056283060112215432609176309965054L
aa(lp988
g2
aL49411056283060112215432609176309965163L
aa(lp989
g2
aL49411056283060112215432609176309965352L
aa(lp990
g12
aL49411056283060112215432609176309965207L
aa(lp991
g2
aL49411056283060112215432609176309964923L
aa(lp992
S'\x15\x11\x0c\x14\n\\R'
p993
aL314755909755515592000481005244904880266L
aa(lp994
g2
aL49411056283060112215432609176309964872L
aa(lp995
S'%]\x04\x14FW'
p996
aL261578874264819908609102035485573088921L
aa(lp997
g2
aL49411056283060112215432609176309965309L
aa(lp998
g12
aL49411056283060112215432609176309965311L
aa(lp999
g2
aL49411056283060112215432609176309965159L
aa(lp1000
g2
aL49411056283060112215432609176309965344L
aa(lp1001
g2
aL49411056283060112215432609176309965305L
aa(lp1002
g2
aL49411056283060112215432609176309965470L
aa(lp1003
g2
aL49411056283060112215432609176309965245L
aa(lp1004
g2
aL49411056283060112215432609176309964867L
aa(lp1005
g2
aL49411056283060112215432609176309965162L
aa(lp1006
S'\n\r'
p1007
aL314755909755515592000481005244904880799L
aa(lp1008
g2
aL49411056283060112215432609176309964828L
aa(lp1009
g2
aL49411056283060112215432609176309965512L
aa(lp1010
g2
aL49411056283060112215432609176309965749L
aa(lp1011
g2
aL49411056283060112215432609176309965432L
aa(lp1012
g2
aL49411056283060112215432609176309964810L
aa(lp1013
g2
aL49411056283060112215432609176309965430L
aa(lp1014
S'\x14PT\x0b'
p1015
aL266003691477286198901011725417809478774L
aa(lp1016
g2
aL49411056283060112215432609176309965627L
aa(lp1017
S'\x0cY\n\x15'
p1018
aL261578874264819908609102035485573089100L
aa(lp1019
g2
aL49411056283060112215432609176309965589L
aa(lp1020
g2
aL49411056283060112215432609176309964815L
aa(lp1021
g2
aL49411056283060112215432609176309964942L
aa(lp1022
g2
aL49411056283060112215432609176309965002L
aa(lp1023
g2
aL49411056283060112215432609176309964854L
aa(lp1024
g12
aL49411056283060112215432609176309965177L
aa(lp1025
S'0g&'
p1026
aL261578874264819908609102035485573089011L
aa(lp1027
S'\x04\x10\r\x0f\x13LX\x11]\x01T\x0f\tK'
p1028
aL314755909755515592000481005244904880428L
aa(lp1029
S'\x11\x0b\x02\x16'
p1030
aL314755909755515592000481005244904880815L
aa(lp1031
S'\x14\x05'
p1032
aL261578874264819908609102035485573089073L
aa(lp1033
g2
aL49411056283060112215432609176309964973L
aa(lp1034
g2
aL49411056283060112215432609176309964807L
aa(lp1035
g2
aL49411056283060112215432609176309965564L
aa(lp1036
g2
aL49411056283060112215432609176309965390L
aa(lp1037
g2
aL49411056283060112215432609176309965371L
aa(lp1038
g2
aL49411056283060112215432609176309965049L
aa(lp1039
g2
aL49411056283060112215432609176309965322L
aa(lp1040
g2
aL49411056283060112215432609176309965059L
aa(lp1041
S'\x04\x04\x02\x0b\rKC'
p1042
aL314755909755515592000481005244904880819L
aa(lp1043
g12
aL49411056283060112215432609176309965802L
aa(lp1044
g2
aL49411056283060112215432609176309965409L
aa(lp1045
S'\nVU\x00GWV\x00\\\n@'
p1046
aL266003691477286198901011725417809479426L
aa(lp1047
S'\x12\n\x17\n'
p1048
aL314755909755515592000481005244904880991L
aa(lp1049
g2
aL49411056283060112215432609176309965570L
aa(lp1050
g2
aL49411056283060112215432609176309965316L
aa(lp1051
S'\x16YN'
p1052
aL223974724102701384270894320508706361592L
aa(lp1053
g2
aL49411056283060112215432609176309965076L
aa(lp1054
g2
aL49411056283060112215432609176309964966L
aa(lp1055
g12
aL49411056283060112215432609176309965121L
aa(lp1056
S'\x10\x10\x06'
p1057
aL314755909755515592000481005244904880463L
aa(lp1058
g2
aL49411056283060112215432609176309964803L
aa(lp1059
g12
aL49411056283060112215432609176309965139L
aa(lp1060
g2
aL49411056283060112215432609176309964981L
aa(lp1061
g2
aL49411056283060112215432609176309965114L
aa(lp1062
g2
aL49411056283060112215432609176309965563L
aa(lp1063
g2
aL49411056283060112215432609176309965351L
aa(lp1064
S'\x01Q'
p1065
aL261578874264819908609102035485573089157L
aa(lp1066
g2
aL49411056283060112215432609176309965759L
aa(lp1067
g2
aL49411056283060112215432609176309965205L
aa(lp1068
g2
aL49411056283060112215432609176309965684L
aa(lp1069
S'\x0b\x0c\x17'
p1070
aL314755909755515592000481005244904880380L
aa(lp1071
S'\x08\x02\x08\x07'
p1072
aL314755909755515592000481005244904880548L
aa(lp1073
g2
aL49411056283060112215432609176309965451L
aa(lp1074
g12
aL49411056283060112215432609176309965336L
aa(lp1075
g2
aL49411056283060112215432609176309965270L
aa(lp1076
g2
aL49411056283060112215432609176309965366L
aa(lp1077
g12
aL49411056283060112215432609176309965477L
aa(lp1078
S'5PR'
p1079
aL223974724102701384270894320508706362283L
aa(lp1080
g2
aL49411056283060112215432609176309965588L
aa(lp1081
g2
aL49411056283060112215432609176309964859L
aa(lp1082
g2
aL49411056283060112215432609176309964951L
aa(lp1083
S'\x12MT\x17^WK'
p1084
aL266003691477286198901011725417809479418L
aa(lp1085
g2
aL49411056283060112215432609176309965686L
aa(lp1086
g2
aL49411056283060112215432609176309965077L
aa(lp1087
S'\rU\x0e\x04XK'
p1088
aL261578874264819908609102035485573088793L
aa(lp1089
g2
aL49411056283060112215432609176309965431L
aa(lp1090
g2
aL49411056283060112215432609176309965467L
aa(lp1091
g2
aL49411056283060112215432609176309965551L
aa(lp1092
g2
aL49411056283060112215432609176309965128L
aa(lp1093
g2
aL49411056283060112215432609176309965274L
aa(lp1094
g2
aL49411056283060112215432609176309964930L
aa(lp1095
g2
aL49411056283060112215432609176309965033L
aa(lp1096
g2
aL49411056283060112215432609176309965004L
aa(lp1097
g2
aL49411056283060112215432609176309964982L
aa(lp1098
g2
aL49411056283060112215432609176309964956L
aa(lp1099
g2
aL49411056283060112215432609176309965605L
aa(lp1100
S'\x00T[\t\x11E'
p1101
aL223974724102701384270894320508706361348L
aa(lp1102
S"'g0$"
p1103
aL261578874264819908609102035485573088384L
aa(lp1104
g2
aL49411056283060112215432609176309965200L
aa(lp1105
g2
aL49411056283060112215432609176309965600L
aa(lp1106
S'\x10]R\x10E[L\x1d'
p1107
aL266003691477286198901011725417809479208L
aa(lp1108
g2
aL49411056283060112215432609176309965188L
aa(lp1109
g2
aL49411056283060112215432609176309965606L
aa(lp1110
g12
aL49411056283060112215432609176309965320L
aa(lp1111
S'\x17\\\n\x12'
p1112
aL261578874264819908609102035485573089206L
aa(lp1113
g2
aL49411056283060112215432609176309965555L
aa(lp1114
g2
aL49411056283060112215432609176309965236L
aa(lp1115
g2
aL49411056283060112215432609176309965102L
aa(lp1116
g2
aL49411056283060112215432609176309965345L
aa(lp1117
g2
aL49411056283060112215432609176309965492L
aa(lp1118
g2
aL49411056283060112215432609176309965350L
aa(lp1119
g2
aL49411056283060112215432609176309965233L
aa(lp1120
g2
aL49411056283060112215432609176309965504L
aa(lp1121
g2
aL49411056283060112215432609176309964843L
aa(lp1122
g2
aL49411056283060112215432609176309964890L
aa(lp1123
g2
aL49411056283060112215432609176309965044L
aa(lp1124
g2
aL49411056283060112215432609176309965287L
aa(lp1125
g2
aL49411056283060112215432609176309965590L
aa(lp1126
g2
aL49411056283060112215432609176309965568L
aa(lp1127
g2
aL49411056283060112215432609176309964906L
aa(lp1128
g2
aL49411056283060112215432609176309965473L
aa(lp1129
S'\x0c\x17'
p1130
aL314755909755515592000481005244904881064L
aa(lp1131
S'\x07\x02\x10\x07\x07'
p1132
aL314755909755515592000481005244904880538L
aa(lp1133
g2
aL49411056283060112215432609176309965607L
aa(lp1134
g2
aL49411056283060112215432609176309965187L
aa(lp1135
S'\x0cA\x11'
p1136
aL261578874264819908609102035485573088785L
aa(lp1137
g2
aL49411056283060112215432609176309965165L
aa(lp1138
g2
aL49411056283060112215432609176309965626L
aa(lp1139
g2
aL49411056283060112215432609176309965241L
aa(lp1140
S'\x12YT\x14\x0fP^Z\x08\\\x01'
p1141
aL223974724102701384270894320508706362194L
aa(lp1142
S'\x00[\r\x15U[]'
p1143
aL261578874264819908609102035485573089144L
aa(lp1144
g2
aL49411056283060112215432609176309965458L
aa(lp1145
g2
aL49411056283060112215432609176309965348L
aa(lp1146
g12
aL49411056283060112215432609176309965809L
aa(lp1147
g2
aL49411056283060112215432609176309965699L
aa(lp1148
S'\x14\x06'
p1149
aL261578874264819908609102035485573088464L
aa(lp1150
g2
aL49411056283060112215432609176309965210L
aa(lp1151
g2
aL49411056283060112215432609176309965695L
aa(lp1152
g2
aL49411056283060112215432609176309965625L
aa(lp1153
g2
aL49411056283060112215432609176309965266L
aa(lp1154
g2
aL49411056283060112215432609176309965484L
aa(lp1155
g2
aL49411056283060112215432609176309964818L
aa(lp1156
g12
aL49411056283060112215432609176309965558L
aa(lp1157
g2
aL49411056283060112215432609176309965015L
aa(lp1158
g2
aL49411056283060112215432609176309965258L
aa(lp1159
g12
aL49411056283060112215432609176309965629L
aa(lp1160
g2
aL49411056283060112215432609176309965267L
aa(lp1161
g2
aL49411056283060112215432609176309965055L
aa(lp1162
g2
aL49411056283060112215432609176309965413L
aa(lp1163
S'\x00TX\x00YFK'
p1164
aL266003691477286198901011725417809478856L
aa(lp1165
g2
aL49411056283060112215432609176309964812L
aa(lp1166
g2
aL49411056283060112215432609176309965529L
aa(lp1167
g2
aL49411056283060112215432609176309965772L
aa(lp1168
S'\x0c\r\x07\x07\x1b'
p1169
aL314755909755515592000481005244904880753L
aa(lp1170
g2
aL49411056283060112215432609176309965806L
aa(lp1171
S'"G'
p1172
aL261578874264819908609102035485573088365L
aa(lp1173
g2
aL49411056283060112215432609176309964816L
aa(lp1174
g2
aL49411056283060112215432609176309965040L
aa(lp1175
g2
aL49411056283060112215432609176309965056L
aa(lp1176
g2
aL49411056283060112215432609176309965226L
aa(lp1177
g2
aL49411056283060112215432609176309964974L
aa(lp1178
S'\x02LE\x04TYK'
p1179
aL266003691477286198901011725417809479242L
aa(lp1180
g2
aL49411056283060112215432609176309965150L
aa(lp1181
g2
aL49411056283060112215432609176309964953L
aa(lp1182
S'\x05\x05'
p1183
aL261578874264819908609102035485573088949L
aa(lp1184
g2
aL49411056283060112215432609176309965197L
aa(lp1185
g2
aL49411056283060112215432609176309965225L
aa(lp1186
g2
aL49411056283060112215432609176309965713L
aa(lp1187
g2
aL49411056283060112215432609176309965584L
aa(lp1188
g2
aL49411056283060112215432609176309965130L
aa(lp1189
g2
aL49411056283060112215432609176309965394L
aa(lp1190
S'\x14Q'
p1191
aL261578874264819908609102035485573089278L
aa(lp1192
g2
aL49411056283060112215432609176309965379L
aa(lp1193
g2
aL49411056283060112215432609176309965068L
aa(lp1194
g2
aL49411056283060112215432609176309964928L
aa(lp1195
g2
aL49411056283060112215432609176309964830L
aa(lp1196
g2
aL49411056283060112215432609176309965070L
aa(lp1197
g2
aL49411056283060112215432609176309965415L
aa(lp1198
g2
aL49411056283060112215432609176309965422L
aa(lp1199
g2
aL49411056283060112215432609176309965025L
aa(lp1200
S'\x0cR'
p1201
aL261578874264819908609102035485573089040L
aa(lp1202
S'\x00\x1b\x17\x07\rK^\nZ'
p1203
aL314755909755515592000481005244904880878L
aa(lp1204
g2
aL49411056283060112215432609176309965703L
aa(lp1205
g2
aL49411056283060112215432609176309964976L
aa(lp1206
g2
aL49411056283060112215432609176309965408L
aa(lp1207
S'\x00[\r\x15U[]]\x05'
p1208
aL261578874264819908609102035485573088738L
aa(lp1209
g2
aL49411056283060112215432609176309964903L
aa(lp1210
g2
aL49411056283060112215432609176309965820L
aa(lp1211
S'\x01\x02\x17\x03'
p1212
aL314755909755515592000481005244904881067L
aa(lp1213
S'\x06VR\x17NBL\x01]'
p1214
aL266003691477286198901011725417809479454L
aa(lp1215
g12
aL49411056283060112215432609176309965293L
aa(lp1216
S'\x16\x17\x11\x17\x00LB\x17Q'
p1217
aL314755909755515592000481005244904880571L
aa(lp1218
S'\x13U\n\x13G'
p1219
aL261578874264819908609102035485573088789L
aa(lp1220
g2
aL49411056283060112215432609176309965361L
aa(lp1221
g2
aL49411056283060112215432609176309964950L
aa(lp1222
g2
aL49411056283060112215432609176309965022L
aa(lp1223
S'\x16\x1a\x10\x16\x06UD'
p1224
aL314755909755515592000481005244904880971L
aa.