(dp0
S'356a192b7913b04c54574d18c28d46e6395428ab'
p1
L261578874264819908609102035485573088717L
sS'da4b9237bacccdf19c0760cab7aec4a8359010b0'
p2
L266003691477286198901011725417809479610L
sS'1b6453892473a467d07372d45eb05abc2031647a'
p3
L223974724102701384270894320508706361435L
sS'77de68daecd823babbb58edb1c8e14d7106e83bb'
p4
L314755909755515592000481005244904881050L
sS'26847b01b53703af5be1ac75cb3df1752ef4a8ce'
p5
L49411056283060112215432609176309965057L
sS'ac3478d69a3c81fa62e60f5c3696165a4e5e6ac4'
p6
L304197110536387568331823853743770901123L
s.