(dp0
S'f6a0d6c96c1f47bc49a6b9cb0ad0fc926b84fb0f'
p1
L324373678199758331138727692821508643923L
sS'837bb8e5a5ad0dab4943a788e327426d80f9f691'
p2
L-313634354153023819503881392874146269754L
sS'47080e9f573ccc9dbd5945a535d77c4a4e38e6d3'
p3
L147640896045216716494844947383085794266L
sS'2d309ce90c549a12a47588a74687315a7c6b51a7'
p4
L9643703763198627784355665723338905805L
sS'f1d16437085ae1e36539a5328125cec05a91bada'
p5
L108248718991896543343075732109507575045L
sS'0955dd818206a40e89101bb215630d0623e506fc'
p6
L306390619206324648769397888972820612697L
sS'd780042543b5df978df33c6ab77e9d6f18d299c3'
p7
L122119994076575414752602961441428911906L
sS'd00ef164202a74e3c2fa18a1237cde170e207a17'
p8
L329319492632057910849358821981258849730L
sS'de73eac0c305038f0437bc6a1f994a5a4379ed28'
p9
L32816812968184756120760590370684751697L
sS'85488f43956a7971c44ff182b38d810be5973f9b'
p10
L238087300468626098212528049292537964823L
sS'2c924e3088204ee77ba681f72be3444357932fca'
p11
L78457101926624718040142441561217263091L
sS'2927b4649cf4307f990009a16d33a38ceea4c866'
p12
L225126543231074669722395041955708854024L
sS'4dc7c9ec434ed06502767136789763ec11d2c4b7'
p13
L-100043567133538282742383207975405601330L
sS'ee977806d7286510da8b9a7492ba58e2484c0ecc'
p14
L-197559383527876869491764458499673378995L
sS'f803b26388365e33184d5cc145d868e1b8df74d5'
p15
L117346698037556400957346884821582697472L
sS'b7c8ffb8fbc67c171328e0e8f643694e8e61b335'
p16
L238167815258774724989647312051039531688L
sS'4e8cc85dc61d89db9d25d7a67a4b00011f6fdac7'
p17
L92409810695796701461268769910238708236L
sS'b9bc9eb9599dc8cac9a8f99884fcfb4ed933a35f'
p18
L124490088800871666261403074844276835693L
sS'0f189b4a857c01fc184fa0a206d26a49a6fa2d5e'
p19
L214864517552000554540821831799099161302L
sS'e2bf55662aa92517cbf7c4c5373e4a6c7b50925c'
p20
L73447392815782912816711041681428019206L
sS'0a1d60115ed088ff4b29f249840213e47350bed1'
p21
L-185302643550732439630334837420537530874L
sS'ded8dae5786fb0e9e6ffb657401fd861ba2efe11'
p22
L-311159061335564316676805578631625848821L
sS'850c11f722ca39b3d2aad51b7011993feec2a6ff'
p23
L32254587636733730291428565112803941630L
sS'1f20e66b17a6eb7c2baf1ab68337d91eaf6f4f80'
p24
L136152143646018544521814441730565768522L
sS'57649289d384211257719ed3939bb54b30e6aebc'
p25
L-101586531701136952038762049694207039541L
sS'a1f13b3bc20a296e08c212be9c56c706c10abc4f'
p26
L-92679319140499660958552392161695885218L
sS'f8ad9164e162f616053a9ea455d886f9a0b00e44'
p27
L-83558810969407000650819517496679400574L
sS'e8c39c4d7e6f77fc86f5b18ff3d27b6831259e4f'
p28
L247369472056518983966272242310429962148L
sS'f6ba90f34b3fd2469bbf0bb78b7eb878339303bd'
p29
L142141309008699715986398387565000892644L
sS'0b1e95cfd9775191a7224d0a218ae79187e80c1d'
p30
L289159173699889222037558937124601356145L
sS'04489a12bbaa6aebffb61ed2f524424ba8e1147e'
p31
L126232143572727172016941488077090195484L
sS'c1380af48659113969e097bf1cb2bc27425f186c'
p32
L262605400846137634304049471690678552489L
sS'04b8c80bb78edbc4f2742dedfab5f5bddf895cd1'
p33
L271927652340938865172815364521841099589L
sS'bbccdf2efb33b52e6c9d0a14dd70b2d415fbea6e'
p34
L191098194712608679334781218410706715135L
sS'68c165671716772b4e167f7cdea114b50fb4f0b9'
p35
L-286143613373596052411236997594243299725L
sS'b03a9feef3ef45901e37ec704a455ea952e1768b'
p36
L-127978688851404076312781782529694098855L
sS'86f7e437faa5a7fce15d1ddcb9eaeaea377667b8'
p37
L16955237001963240173058271559858726908L
sS'535ae678fd33caa22f33566744706724ad7aa74c'
p38
L325937775083568711925365352410639855587L
sS'df9e8cae1a712657a8fc5465e4d7ac8c6e828ded'
p39
L210497887695335364623071109882975425010L
sS'a6d35c604bf354a18bdcc28ba92c226ca2c9e021'
p40
L286933535856423421925888681820868080114L
sS'd92342976d720ff38cf5dcb329be41959ab1ba6c'
p41
L106597400100913337840309794689690373933L
sS'f8969a18a0daab6f59b42990613def0b8b6d48eb'
p42
L131062541079177480868901109767593905311L
sS'3559d7accf00360971961ca18989adc0614089c0'
p43
L8854240722463883999357733915721542284L
sS'16987e757b2da5b14f9e6730e5429cb4997e16f2'
p44
L122656798244910736651212458503001941585L
sS'898fdda1f7fb0cbf08d94e70cb7add8420a333fd'
p45
L187007136748764226823505187053652226789L
sS'7b75b497a40fec64a8eba380ea209b974397db59'
p46
L-19478786914185383075883211796074599747L
sS'eb6e74ca6cfe960595a0e3866343993d1d2cb8e3'
p47
L281588849408501781079682819789501587005L
sS'5452220584f9d82eacc9d4b64b556c642aa95fe3'
p48
L243493974605400377780422834004120085593L
sS'269f6e7dce9ef2c00cbe83df8e056fbe0c1099e2'
p49
L221221380043439455467619619430852077978L
sS'7e9219a0599eae1d9601883f894b4fbe60870586'
p50
L58994471207260148389833531789060503611L
sS'b802f384302cb24fbab0a44997e820bf2e8507bb'
p51
L71564519044701392337727607616517077080L
sS'6347b76c94ec55891645db8a51d019d417a1c2d6'
p52
L312299496823315925661933896851274985527L
sS'619aae029dda528253a6af0ba619b45baa1df115'
p53
L31204714928037002715232930428922999157L
sS'55bc5de4ad739fc0c332d826cb21bab6c0fd28b7'
p54
L-283116104670399613246822700440048307156L
sS'ed36cbf2c9bb73ca445c18f5195c59b62495d89c'
p55
L266154274375780257578976664462586604902L
sS'0746eefcb938f6d7ef8ee33335c991d24ee71ffd'
p56
L224890364260059138865029363098219290244L
sS'19edc1210777ba4d45049c29280d9cc5e1064c25'
p57
L321626845668191765632441201012897609323L
sS'43eef9a62abb8b1e1654f8a890aae054abffa82b'
p58
L283574240599268479608258648246783202833L
sS'f7ae8d5445b05dc5488cb8d83f9a253ad4da9cc6'
p59
L151574470634924652819956701765567191544L
sS'08b8ab391b76b4535a8eda3d983646f94033df86'
p60
L156174460157291145484480431786557303815L
sS'6c5522ca8af86fc5069b737bb8892b3ea61002c2'
p61
L17386965136278831468862200520284534021L
sS'0f837f01286bc38fa6a85d0b75d7ca7a8e1f00ba'
p62
L78065621931927449732560292189426200022L
sS'8c4a6b36a09cceef20277eb19f83bae01800768e'
p63
L-305550612735311101408123057853060182094L
sS'e0a06c2e3929d6f0743210e801c00400e6a5b02e'
p64
L263684593990701565534997284813480879178L
sS'1d71315e40d788175324082b08aeee624501f8d5'
p65
L-247178030357262140629685553875865621234L
sS'b51c31d9cefe279357b4ce4a42fb82aa010a365f'
p66
L72627325299423042606933911443954532483L
sS'ec96667ac8c50460893f4a00d5fdb401283145dd'
p67
L45143403460393994843877263532567381212L
sS'f88abc69ab25281279e3b33fbb3ae24955b549cf'
p68
L-283825068277151478806434391504133164982L
sS'93c8c96b46419d184755f7cd8f257fd048d73e0d'
p69
L224052917636537177300540359967572765608L
sS'14012cd1b375ede06f6334b34167397cb7be4265'
p70
L230870332363232829852717971001218306237L
sS'aff024fe4ab0fece4091de044c58c9ae4233383a'
p71
L-320556862105665356727910535058133114217L
sS'958f57f57d72a30f329ee5538f21b0257a49a46e'
p72
L76807460577584084691263641303168958080L
sS'f98961015a0ac393630f4eda3749d644a716da64'
p73
L114873054883478940955537381938346963599L
sS'f29fb922c9bc4dad8787a0562a85a2cd27d035a5'
p74
L200540641780677684777608802031900989568L
sS'92bd75ebd8fd2b0179172217b15350cc6d4002f0'
p75
L160576542000167741367987204226999934677L
sS'46102433ccd7b596ef7607c8c900895ead30a16a'
p76
L24392373442708726481642298367077664582L
sS'c2543fff3bfa6f144c2f06a7de6cd10c0b650cae'
p77
L210778016888740241451719193517598973595L
sS'557f255516719ea16f8f4a0aae1166054e2c9b43'
p78
L283343178249605912142157906725472553271L
sS'986b1bc1eb8de89643c50722910f99001c232865'
p79
L192786527457361319826756884412515780917L
sS'5780daf6db0b013dbf82807c9f85abba683b0820'
p80
L-93978364543453720761251759627663133448L
sS'de04fa0e29f9b35e24905d2e512bedc9bb6e09e4'
p81
L186053084610610441670952187307716208803L
sS'200a4eeceb23812607056fd2fbd63a0e877f08d7'
p82
L184609574338790218668739662633505767823L
sS'000e793db70c59309fa6f0f36d0046d110f3be3c'
p83
L214188962804559254178089318768934501185L
sS'552a9a57db099fc652df882729e7224ff9dd8c55'
p84
L84897985725866866563678630807813783876L
sS'7a8406af479c3df5ad26d2579f3a81b1a2f78238'
p85
L268219182036971381400915264396335238385L
sS'5bdcd3c0d4d24ae3e71b3b452a024c6324c7e4bb'
p86
L89440249951127043652194668066535888850L
sS'119e99d80be58fa485f5a264be04cdda9caf3a1d'
p87
L-323556997847672286213615725044747211953L
sS'3de4f901fffb30ac720b0e7eb654b4faa2dd03fa'
p88
L-275308805226096903320228875103230593716L
sS'88fc09e54b17679b0028556344b50c9fe169bdb5'
p89
L119208377518758804274620603989600968341L
sS'a81b09d9521597ebcaf0cc8b49ad7a8be8e4cc61'
p90
L-318779430422465282845264335408152924006L
sS'632189911406baadba67b9264fabc79949ea761a'
p91
L329648993649601064659549557752055899714L
sS'13a1f32fdc8f6576cb6c4c484dcb69cc3f147b25'
p92
L128183934359446490912476215289721814516L
sS'3fe69382869530ce0a86f97d9955b14a70552f80'
p93
L268540913666170723035063153648274440056L
sS'013e5670c034345cdd064d1132b95dd1b6bea040'
p94
L173656894469114516481058567084255291481L
sS'cdf7e925f5746741c316f5fbcf39ad0dfca90775'
p95
L111520541629677338652863289537700210331L
sS'af10ef20dd9060bbeead0afbc55381a66af442ef'
p96
L26199030086132384327927567044849445526L
sS'3d48292e4d2714f11c2adf276b610971e068a519'
p97
L294989553133223080182107326349190080990L
sS'f0d521a5dc37493901c869e3f3753ee3ac06b9c0'
p98
L111992144853217685135724975739500392303L
sS'355f28f2c0c387add6231fd1a568b9377fd2fb37'
p99
L46726542870970863969345813254280023087L
sS'a194c401189a9d4c3569bfccffd4d0c44a94edeb'
p100
L-128759067309073407762273055910463700861L
sS'08437a9e9ead95ac76f56d218c4a781323d6f605'
p101
L-295730802809665471476426475568054643657L
sS'677c1bfa3a036c74b82ee72bdbebee78a5efbb71'
p102
L296860244203163120083595804079115727027L
sS'2882863e6e2ab7b2793b9678def2223efc1e205f'
p103
L-31622740581221658228443777297359371708L
sS'1c970930d4f953925a6ad107cd7edbbbc8765416'
p104
L-171741750855419242466332628877299794378L
sS'7cd9148ec5a552dbf68de5a6debcf8e4d974db72'
p105
L-36038595454190358409134516965385798124L
sS'41b426fb69c819c1f3a57bdc7ae4fe543fd971f1'
p106
L69683309783654016798579665441278163885L
sS'53b0a1b2fadf4e040cdc2155a7340de24aca93cb'
p107
L236250248203164816707889037167271745226L
sS'163df8b0928d9227516590390624aa7b4ac33b93'
p108
L34845766461254906983997973639289895148L
sS'1758356db21759f7c5a0da9b4dd1db8fd6feab3f'
p109
L308527867634570631960234007952013569302L
sS'93ef0dd827103681fcee453b78be2ff14e1a261d'
p110
L218576547613787824078809665057315419519L
sS'24a1733ca8bb0ae45a3ffd1eeddc926b2fc5841f'
p111
L165709235725882605143385183677840920468L
sS'9d31985fda87b26d6554bcfbfe7dbc398b51917e'
p112
L52810681084731432803167796301985125969L
sS'd015cc465bdb4e51987df7fb870472d3fb9a3505'
p113
L37277912508890198398143486953580158351L
sS'89f6229a11ac4ebaa553c1a3ea96d78fa7483735'
p114
L312846667860262014969721324351937985354L
sS'ed04ff4dabf1e2d4cd6b89136c2b24dec27ecca4'
p115
L185401122480771069708217616586079991523L
sS'a2757dfd743fdfb6b71535e5c146504a7500780a'
p116
L-134611987786304466562121622022221693362L
sS'd0975e67a95c1c3a40925066bd88da8d8f4e888a'
p117
L237268400724250600711099618611612771686L
sS'c9c64e071d2853bc7906c017a231ad1cc46ab630'
p118
L100741677641391260653724673163508469856L
sS'd869db7fe62fb07c25a0403ecaea55031744b5fb'
p119
L-728729767997820669913067086419953891L
sS'6b34542c7c6d8bca18477fca98818430f3d20b3a'
p120
L197953247472502228196316330075229709724L
sS'676e6f35cfc173f73fea9fe27699cf8185397f0c'
p121
L339102728661110485812516909252493347140L
sS'db3d405b10675998c030223177d42e71b4e7a312'
p122
L315252169844744389880327823575257022192L
sS'46148cc3b4d2b3ac8073f14b0cba7f25ffff54bd'
p123
L114941975694943161523401835192534217960L
sS'5e0327f3ea73cf88b0f10d01c7514331e769140a'
p124
L298779627657299730309109011667020582922L
sS'd87c448044defb778f33158d8ccf94a20531d600'
p125
L214678880770509114818228625328870762513L
sS'910440a0b2056ffffa747c3c958aae9c25246d7d'
p126
L317247403208917306432365859934883640757L
sS'9a9e56edb7dc61cd92ecb62a0d8d8410a1befc64'
p127
L86660592562663727148799656106278903010L
sS'e8b95d665e2ceb500a33527b2321b156a6f1e2d2'
p128
L-84140803457407031393070648978560597474L
sS'233c4dd25613ac083f69f367acd23eb6d209fd5d'
p129
L-41379369252415255461822977479438129456L
sS'fe05eb1fe7723f694803ca282bd7a614911908ec'
p130
L185494156999739357056957599416404587748L
sS'c3499c2729730a7f807efb8676a92dcb6f8a3f8f'
p131
L35191539084594198088365867356169889615L
sS'dd4355d9d6a2995312181255c8360adb304d044d'
p132
L243315483377195156234354873833087903097L
sS'5fd6574629cf4f9779086bc9d63603ff5c742562'
p133
L75221189368751633072620078257594265229L
sS'5f9e5802bbabc71f9275fccf122f5a52b8599f12'
p134
L85184372107726172533207951018997611657L
sS'1eb7d5c2200d0f49da387953fb79c9fef74fbb5c'
p135
L-284768902125289172218957624851674987776L
sS'c89add65baa7f86f2dc127859ea01d3d94968f01'
p136
L133416282060805441650167338640736040543L
sS'7f55aa8957ff7a016f471be70bca3400ef8e5313'
p137
L181296140448642482809972562105697870615L
sS'c09bb890b096f7306f688cc6d1dad34e7e52a223'
p138
L251356564324236866913781031722499593677L
sS'0d4e654c613ea68bffeeab1587b7dbac44826c2b'
p139
L335031417128968419371709462851060497752L
sS'b47f363e2b430c0647f14deea3eced9b0ef300ce'
p140
L216193320347389458588340531206347663516L
sS'3b959693d09b2240ecc5112647d33a2a66c14aa2'
p141
L166768754618012595542622638639973706626L
sS'83dd9d6af43f8cbee08acd981417321e144b776b'
p142
L-248881337929521067907063984388774581421L
sS'78c37ed1a914e7d544d18bafbe533ffbc710a286'
p143
L131385009489587318854940540891704096961L
sS'a35e8df8e67845a52974a31c97d74ab8a195e3da'
p144
L196701098664786984015174935192670507820L
sS'ff87cea4a48b77342a2dbef29133a128abc52679'
p145
L239498208137848539466139491824040566760L
sS'f1bcfb1408f3062f33325b2f345c438fab4af16d'
p146
L338673980952466593731654390283514890098L
sS'8eec7bc461808e0b8a28783d0bec1a3a22eb0821'
p147
L309867905593264657295114679168353091272L
sS'dfe2db74975e0aa9f6fdd4d61dedcb7328502456'
p148
L198726480257857143026918858465819559021L
sS'786e97b3ee9fc4b292d5852c2c5943153c4ce91a'
p149
L-73572527759227000257800171779964855144L
sS'81b781d39d62e9d0e272e181ce7802af3f0f94f7'
p150
L-251620300604078438559107536232841659081L
sS'30603fa9e0f620c305cd627ab0ff138a960c48bd'
p151
L296797414244808294143930585641712399547L
sS'4f8278c89ad16da05fec4fdfc61fe44798b92720'
p152
L337311033188769404643475007373785974163L
sS'23e4aa5d12e39930eab71c23d665f2a4393c8eb4'
p153
L175487434728105923217022080845734522132L
sS'cf1126f67238bf3e85fcc8c8737b72e80ddcfddb'
p154
L72318120560430449534166300588471610304L
sS'33b82201081ec7c438cb5d9a36cd72bcb153050b'
p155
L44322346982202462658822084698240404132L
sS'84a516841ba77a5b4648de2cd0dfcb30ea46dbb4'
p156
L-99079589977253916124855502156832923444L
sS'87974f45ca1c008614a8296bc8530483382278d9'
p157
L121948605920332742417390385072667701205L
sS'4848901b39f315f647470520fc27c57e0fccd481'
p158
L127307451796203264750061527487254069976L
sS'26847b01b53703af5be1ac75cb3df1752ef4a8ce'
p159
L49411056283060112215432609176309965162L
sS'ae79ea1e9c6391a9ed83a2e18a031b835feec0c9'
p160
L-299249747408152749666463821158895622996L
sS'a43aa2b3cce8548368bbd79297bc5714364ea31a'
p161
L286943754984336685489182170392022395832L
sS'259c0204c51d0a863cdd012aeab2bbe0dc46b18d'
p162
L-127875798819752571625595609770382593321L
sS'aef36502d67b0520654deb764dd055a7e905cfdd'
p163
L318906788427426362741213851965727270099L
sS'4ab69d1f449d0c975c87c5a03c3f2c332a210aaa'
p164
L219267144271836905333955889022803175062L
sS'785fcdb21386e87389a80e0d580bb8e0086e6eaa'
p165
L20125917771768282749222821927120120732L
sS'356a192b7913b04c54574d18c28d46e6395428ab'
p166
L261578874264819908609102035485573088473L
sS'353c847ec3d51fb75d760939a900605ca2ba1152'
p167
L117778035789130271639106870744757054868L
sS'93df14617ceda8ee499003ae137b44e91aa26cce'
p168
L333305474600869313146037509594144188344L
sS'9fb29051f2217270a7b253a39f820310d85a78f0'
p169
L223128952076257081430239972785860200660L
sS'e540cdd1328b2b21e29a95405c301b9313b7c346'
p170
L141693508428367175816910246814798929083L
sS'3e1864f7e391d8cdf79eb333283da56f5d65ae68'
p171
L127300835726018578835784472312650428523L
sS'c98978327553757b1548ad20eda9a928720ebe5b'
p172
L161526702113811206660341504047597127691L
sS'dabb7d64d487a23f64328ef4cfc8d615fc03a29b'
p173
L151559969496351441730333580791845764126L
sS'00819c0e54f9c4fe002aa0570e66e25e695d9513'
p174
L14197292422796585777494663582412867709L
sS'75b5f94057f62d093efccb8f9ae134bba7137d11'
p175
L132687329834829618538999122614639175966L
sS'90dbcbc1c025d4d6ebaf1fdc598c02b98136e4a3'
p176
L110188170570812447719035906260901790164L
sS'6470fd57b9952185ac4a9067cb7959cbf3023520'
p177
L162256203888854075966814430391946915021L
sS'7601834e5495b2e7c12452e8ac76bf05d062c577'
p178
L300862600602403614871931371214338883236L
sS'8fcd25a39d2037183044a8897e9a5333d727fded'
p179
L47382547829039383040409115339590487240L
sS'69601c80c9dbb0f4ce9be4bad681e36e83719c2b'
p180
L118661929096051851656173201625959217807L
sS'2c3a0ef6ef4316e6e5d1c614dce6be8faad1cb40'
p181
L36914644705384621381497570647033269563L
sS'2dda784cf25c5a8cbbe11c60e8fb777f7c897dd5'
p182
L209867135995175714916873693366764797836L
sS'606bfab7724004ad51de4fe4df37c07eaf76d564'
p183
L141082692163550701117866991432449661468L
sS'b619d1e192662017a91f5fc31dfd4bbd1bf10469'
p184
L324432735942323252803231564579213698480L
sS'8e425ff79c7c294266f1a4093c553d06af472609'
p185
L-9344715304155681094755499337384801684L
sS'55b00519c07d7934f0628c5b69fe1bd1a63f55ec'
p186
L-165026582063274122863197112822604643416L
sS'f290fd9a145f9e5448eaffdc554f7ca60b05464e'
p187
L-165552911638438006891310154590050764981L
sS'd2a04d71301a8915217dd5faf81d12cffd6cd958'
p188
L130765684875106285809661493517456372389L
sS'4374aaee247fb237ce6c97d5c8d64bbe474d16de'
p189
L2278810107558815722407704051073471686L
sS'a17c9aaa61e80a1bf71d0d850af4e5baa9800bbd'
p190
L188041611063492600696317361555123480333L
sS'94b6931d19c85cc30a433fab65c20f3dc0dc9598'
p191
L253925893242893930217842064165339039375L
sS'df211ccdd94a63e0bcb9e6ae427a249484a49d60'
p192
L-331563901410794889994769158908605772188L
sS'90c5d1358d128117989fc21f2897a25c99205e50'
p193
L210844844693726334908391990333441209902L
sS'dc65dfc08b64ac13cf3fcb3e954576bcc619061e'
p194
L111365330764598141404646256713820530930L
sS'6150cff9d7080a62c09520808d52acbd354f0d38'
p195
L324722741084818350966690983348695018114L
sS'5821eb27d7b71c9078000da31a5a654c97e401b9'
p196
L12781807715119410301391598723682590081L
sS'896876480d978418ecb44100fe96dee4150ec2c7'
p197
L327088108207524322577435750565968999875L
sS'660cffc21b661e4c7984b5b2a88f911ddd5d1dd4'
p198
L43074511837979067582677299639685144451L
sS'02a81a8e26f7dc6f0bd48a2f3603ff0f3ba706bb'
p199
L-128791899827395920380815816721772678916L
sS'cffa50a32cb13a240d705317bcec65dd1f31b6ad'
p200
L253038093454671532312275436304309118672L
sS'c3ee137d4f22eb06ed1351d644f3674592c90836'
p201
L226933915340180591867582812114694404827L
sS'e274eeff768c6396088ec6eb091f4bf4d47ab1e0'
p202
L-138121191887172634461715664863489859254L
sS'9cd92c514f98d0f23a75f122947e7c4508e93f56'
p203
L-49650622206917939965571726492760270706L
sS'f0fed7e4932302916b4e9c73fe47edcafeed7c44'
p204
L79035086386427072571880563220838455785L
sS'2cd7484bc1b15fccff822cd21eebb9f498794c14'
p205
L29482869326938559439526917811220679987L
sS'd2005cc206ccbfdedf2be43a200cb050c538bdb5'
p206
L72395330522554445429996221257624543302L
sS'7f01fe787c49e4adbe32533279699f08494c6472'
p207
L279665847239292280609768783717639768837L
sS'9847e44893360cd9e5df4a719609faa054a66015'
p208
L170951020168967712425376962652453775900L
sS'083dbabef569d46bf2ed5937e359fb78e42fbb0d'
p209
L88132714832661630664962032043511556668L
s.