(lp0
(lp1
S'#EMPTY#'
p2
aL49411056283060112215432609176309965790L
aa(lp3
S'\x10Q\x02\x13WZ'
p4
aL261578874264819908609102035485573088772L
aa(lp5
g2
aL49411056283060112215432609176309965588L
aa(lp6
g2
aL49411056283060112215432609176309965664L
aa(lp7
g2
aL49411056283060112215432609176309965410L
aa(lp8
g2
aL49411056283060112215432609176309965193L
aa(lp9
g2
aL49411056283060112215432609176309965069L
aa(lp10
g2
aL49411056283060112215432609176309965630L
aa(lp11
g2
aL49411056283060112215432609176309965459L
aa(lp12
S'\x00HG\n\x0fUVM\x08]\x08'
p13
aL223974724102701384270894320508706362049L
aa(lp14
S'\x14PT\x11_WJ'
p15
aL266003691477286198901011725417809479237L
aa(lp16
g2
aL49411056283060112215432609176309964908L
aa(lp17
S'\x01\x02\x17\x03'
p18
aL314755909755515592000481005244904881115L
aa(lp19
g2
aL49411056283060112215432609176309965364L
aa(lp20
S'#EMPTY#'
p21
aL49411056283060112215432609176309965053L
aa(lp22
g2
aL49411056283060112215432609176309965779L
aa(lp23
g2
aL49411056283060112215432609176309964811L
aa(lp24
S'\x02VU'
p25
aL-266003691477286198901011725417809479213L
aa(lp26
g2
aL49411056283060112215432609176309965396L
aa(lp27
g2
aL49411056283060112215432609176309965408L
aa(lp28
g2
aL49411056283060112215432609176309965598L
aa(lp29
g2
aL49411056283060112215432609176309965762L
aa(lp30
g2
aL49411056283060112215432609176309965052L
aa(lp31
S'\t\n\x0e\x0b\x17YC\x0c[\x0cF'
p32
aL314755909755515592000481005244904880691L
aa(lp33
g2
aL49411056283060112215432609176309965300L
aa(lp34
g2
aL49411056283060112215432609176309965103L
aa(lp35
g2
aL49411056283060112215432609176309965238L
aa(lp36
g2
aL49411056283060112215432609176309965101L
aa(lp37
g2
aL49411056283060112215432609176309965547L
aa(lp38
g2
aL49411056283060112215432609176309965449L
aa(lp39
g2
aL49411056283060112215432609176309964931L
aa(lp40
S'\x02YY'
p41
aL223974724102701384270894320508706361405L
aa(lp42
g2
aL49411056283060112215432609176309965389L
aa(lp43
g2
aL49411056283060112215432609176309965693L
aa(lp44
S'\x03\x11\x0c\x0f'
p45
aL314755909755515592000481005244904880619L
aa(lp46
g2
aL49411056283060112215432609176309965813L
aa(lp47
g2
aL49411056283060112215432609176309965110L
aa(lp48
g2
aL49411056283060112215432609176309965020L
aa(lp49
g21
aL49411056283060112215432609176309965080L
aa(lp50
g2
aL49411056283060112215432609176309964897L
aa(lp51
g2
aL49411056283060112215432609176309965701L
aa(lp52
S'"G'
p53
aL261578874264819908609102035485573088372L
aa(lp54
S'\x10\\\x0c\x16Z'
p55
aL261578874264819908609102035485573088466L
aa(lp56
g2
aL49411056283060112215432609176309965281L
aa(lp57
g21
aL49411056283060112215432609176309965197L
aa(lp58
g21
aL49411056283060112215432609176309965591L
aa(lp59
g2
aL49411056283060112215432609176309965321L
aa(lp60
S'\x12]V\x14\x05^'
p61
aL223974724102701384270894320508706361463L
aa(lp62
g2
aL49411056283060112215432609176309965782L
aa(lp63
g2
aL49411056283060112215432609176309965429L
aa(lp64
S'\r\x02\x15\x07'
p65
aL314755909755515592000481005244904880330L
aa(lp66
g2
aL49411056283060112215432609176309964879L
aa(lp67
g2
aL49411056283060112215432609176309964863L
aa(lp68
g21
aL49411056283060112215432609176309965002L
aa(lp69
S'\nZ\x07\x04L'
p70
aL261578874264819908609102035485573088961L
aa(lp71
g2
aL49411056283060112215432609176309965488L
aa(lp72
g2
aL49411056283060112215432609176309965349L
aa(lp73
S'"K'
p74
aL266003691477286198901011725417809479146L
aa(lp75
g2
aL49411056283060112215432609176309965495L
aa(lp76
g2
aL49411056283060112215432609176309964878L
aa(lp77
g2
aL49411056283060112215432609176309965561L
aa(lp78
g2
aL49411056283060112215432609176309964980L
aa(lp79
S'\x00TX\x00YFK'
p80
aL266003691477286198901011725417809478957L
aa(lp81
S'\x11]B\x15RQL'
p82
aL266003691477286198901011725417809478998L
aa(lp83
g2
aL49411056283060112215432609176309965417L
aa(lp84
g2
aL49411056283060112215432609176309965083L
aa(lp85
g2
aL49411056283060112215432609176309965107L
aa(lp86
S'\x0cY\n\x15'
p87
aL261578874264819908609102035485573088544L
aa(lp88
g21
aL49411056283060112215432609176309965012L
aa(lp89
g2
aL49411056283060112215432609176309965517L
aa(lp90
S'0kt'
p91
aL266003691477286198901011725417809479483L
aa(lp92
g2
aL49411056283060112215432609176309965670L
aa(lp93
g2
aL49411056283060112215432609176309965318L
aa(lp94
S'\x00[\r\x15U[]'
p95
aL261578874264819908609102035485573089218L
aa(lp96
g21
aL49411056283060112215432609176309965096L
aa(lp97
g2
aL49411056283060112215432609176309965119L
aa(lp98
g2
aL49411056283060112215432609176309965759L
aa(lp99
S'\x14\x06'
p100
aL261578874264819908609102035485573089093L
aa(lp101
g2
aL49411056283060112215432609176309964812L
aa(lp102
g2
aL49411056283060112215432609176309965298L
aa(lp103
S'\x14\x05'
p104
aL261578874264819908609102035485573088470L
aa(lp105
g2
aL49411056283060112215432609176309964815L
aa(lp106
g2
aL49411056283060112215432609176309964965L
aa(lp107
g2
aL49411056283060112215432609176309965680L
aa(lp108
g2
aL49411056283060112215432609176309965503L
aa(lp109
g21
aL49411056283060112215432609176309965043L
aa(lp110
g2
aL49411056283060112215432609176309965535L
aa(lp111
g2
aL49411056283060112215432609176309965113L
aa(lp112
g2
aL49411056283060112215432609176309965385L
aa(lp113
S'\x11\x0b\x02\x16'
p114
aL314755909755515592000481005244904880469L
aa(lp115
g2
aL49411056283060112215432609176309965714L
aa(lp116
g2
aL49411056283060112215432609176309964925L
aa(lp117
g2
aL49411056283060112215432609176309964932L
aa(lp118
g2
aL49411056283060112215432609176309965328L
aa(lp119
g2
aL49411056283060112215432609176309965015L
aa(lp120
g2
aL49411056283060112215432609176309965332L
aa(lp121
g2
aL49411056283060112215432609176309965745L
aa(lp122
g2
aL49411056283060112215432609176309965306L
aa(lp123
g2
aL49411056283060112215432609176309965239L
aa(lp124
g21
aL49411056283060112215432609176309964899L
aa(lp125
g2
aL49411056283060112215432609176309965808L
aa(lp126
g21
aL49411056283060112215432609176309965587L
aa(lp127
g21
aL49411056283060112215432609176309965792L
aa(lp128
g2
aL49411056283060112215432609176309965555L
aa(lp129
g2
aL49411056283060112215432609176309965696L
aa(lp130
S'\x08]H\x12X@\\'
p131
aL266003691477286198901011725417809478973L
aa(lp132
g21
aL49411056283060112215432609176309964861L
aa(lp133
g2
aL49411056283060112215432609176309965618L
aa(lp134
g21
aL49411056283060112215432609176309965494L
aa(lp135
g21
aL49411056283060112215432609176309965001L
aa(lp136
g2
aL49411056283060112215432609176309965074L
aa(lp137
g2
aL49411056283060112215432609176309965617L
aa(lp138
g2
aL49411056283060112215432609176309964976L
aa(lp139
g2
aL49411056283060112215432609176309965414L
aa(lp140
g21
aL49411056283060112215432609176309965169L
aa(lp141
g2
aL49411056283060112215432609176309965401L
aa(lp142
g2
aL49411056283060112215432609176309964950L
aa(lp143
g2
aL49411056283060112215432609176309964934L
aa(lp144
g2
aL49411056283060112215432609176309964825L
aa(lp145
g21
aL49411056283060112215432609176309965203L
aa(lp146
S'\x10]\x0e\x11X[PQ\x15I'
p147
aL261578874264819908609102035485573088895L
aa(lp148
g21
aL49411056283060112215432609176309965138L
aa(lp149
g2
aL49411056283060112215432609176309965518L
aa(lp150
g2
aL49411056283060112215432609176309965140L
aa(lp151
g2
aL49411056283060112215432609176309965222L
aa(lp152
g21
aL49411056283060112215432609176309965338L
aa(lp153
g21
aL49411056283060112215432609176309965084L
aa(lp154
S'\x16PR\x14\x03'
p155
aL223974724102701384270894320508706362208L
aa(lp156
g2
aL49411056283060112215432609176309965114L
aa(lp157
g2
aL49411056283060112215432609176309965058L
aa(lp158
g2
aL49411056283060112215432609176309965420L
aa(lp159
g2
aL49411056283060112215432609176309965755L
aa(lp160
g2
aL49411056283060112215432609176309964959L
aa(lp161
g2
aL49411056283060112215432609176309965436L
aa(lp162
g2
aL49411056283060112215432609176309965461L
aa(lp163
S'\x04\r\x07'
p164
aL-314755909755515592000481005244904880884L
aa(lp165
g2
aL49411056283060112215432609176309964983L
aa(lp166
g2
aL49411056283060112215432609176309964805L
aa(lp167
g21
aL49411056283060112215432609176309965394L
aa(lp168
S'\x05A\x0f\rM\x1fWA\x0fQ\x0fPQ'
p169
aL261578874264819908609102035485573088975L
aa(lp170
g2
aL49411056283060112215432609176309964893L
aa(lp171
g2
aL49411056283060112215432609176309964953L
aa(lp172
g2
aL49411056283060112215432609176309965780L
aa(lp173
g21
aL49411056283060112215432609176309964801L
aa(lp174
g2
aL49411056283060112215432609176309964993L
aa(lp175
g2
aL49411056283060112215432609176309965620L
aa(lp176
g2
aL49411056283060112215432609176309965333L
aa(lp177
g2
aL49411056283060112215432609176309965448L
aa(lp178
g2
aL49411056283060112215432609176309964840L
aa(lp179
g2
aL49411056283060112215432609176309965470L
aa(lp180
g2
aL49411056283060112215432609176309965089L
aa(lp181
g2
aL49411056283060112215432609176309964853L
aa(lp182
S'\n\r'
p183
aL314755909755515592000481005244904880130L
aa(lp184
g2
aL49411056283060112215432609176309964948L
aa(lp185
g21
aL49411056283060112215432609176309965026L
aa(lp186
g2
aL49411056283060112215432609176309965758L
aa(lp187
g2
aL49411056283060112215432609176309965309L
aa(lp188
g2
aL49411056283060112215432609176309965769L
aa(lp189
S'\x10]R\x10EW'
p190
aL266003691477286198901011725417809479229L
aa(lp191
g2
aL49411056283060112215432609176309964943L
aa(lp192
S'\nZ'
p193
aL261578874264819908609102035485573088459L
aa(lp194
g2
aL49411056283060112215432609176309965037L
aa(lp195
g2
aL49411056283060112215432609176309965611L
aa(lp196
g21
aL49411056283060112215432609176309965288L
aa(lp197
g2
aL49411056283060112215432609176309965228L
aa(lp198
g2
aL49411056283060112215432609176309965437L
aa(lp199
g2
aL49411056283060112215432609176309965081L
aa(lp200
g2
aL49411056283060112215432609176309965177L
aa(lp201
S'\x00P^\x16R\\'
p202
aL266003691477286198901011725417809478971L
aa(lp203
g2
aL49411056283060112215432609176309964865L
aa(lp204
g2
aL49411056283060112215432609176309965253L
aa(lp205
g2
aL49411056283060112215432609176309964850L
aa(lp206
S'\x10[Y\x00ZW'
p207
aL266003691477286198901011725417809479565L
aa(lp208
g2
aL49411056283060112215432609176309965732L
aa(lp209
g2
aL49411056283060112215432609176309965029L
aa(lp210
g2
aL49411056283060112215432609176309965781L
aa(lp211
g21
aL49411056283060112215432609176309965679L
aa(lp212
g2
aL49411056283060112215432609176309965631L
aa(lp213
g2
aL49411056283060112215432609176309965621L
aa(lp214
S'\x05\x05'
p215
aL261578874264819908609102035485573088637L
aa(lp216
g2
aL49411056283060112215432609176309965366L
aa(lp217
g2
aL49411056283060112215432609176309965499L
aa(lp218
g21
aL49411056283060112215432609176309964930L
aa(lp219
g2
aL49411056283060112215432609176309965244L
aa(lp220
g2
aL49411056283060112215432609176309965687L
aa(lp221
S'\x11]B\x10[FK'
p222
aL266003691477286198901011725417809479159L
aa(lp223
g2
aL49411056283060112215432609176309965770L
aa(lp224
g2
aL49411056283060112215432609176309965323L
aa(lp225
g2
aL49411056283060112215432609176309965777L
aa(lp226
g2
aL49411056283060112215432609176309965301L
aa(lp227
g2
aL49411056283060112215432609176309965262L
aa(lp228
g2
aL49411056283060112215432609176309965290L
aa(lp229
S'\x16\x1a\x10\x16\x06UD'
p230
aL314755909755515592000481005244904880916L
aa(lp231
g2
aL49411056283060112215432609176309965774L
aa(lp232
g2
aL49411056283060112215432609176309965484L
aa(lp233
g2
aL49411056283060112215432609176309965623L
aa(lp234
S'\x17['
p235
aL261578874264819908609102035485573089036L
aa(lp236
S'\x0c\r\x07\x07\x1b'
p237
aL314755909755515592000481005244904880908L
aa(lp238
g2
aL49411056283060112215432609176309965475L
aa(lp239
g2
aL49411056283060112215432609176309965720L
aa(lp240
g2
aL49411056283060112215432609176309964972L
aa(lp241
g2
aL49411056283060112215432609176309965425L
aa(lp242
g2
aL49411056283060112215432609176309965526L
aa(lp243
g2
aL49411056283060112215432609176309965013L
aa(lp244
g2
aL49411056283060112215432609176309965444L
aa(lp245
g2
aL49411056283060112215432609176309965202L
aa(lp246
g2
aL49411056283060112215432609176309964844L
aa(lp247
g2
aL49411056283060112215432609176309965752L
aa(lp248
g2
aL49411056283060112215432609176309965091L
aa(lp249
g2
aL49411056283060112215432609176309965460L
aa(lp250
g2
aL49411056283060112215432609176309965315L
aa(lp251
g2
aL49411056283060112215432609176309965650L
aa(lp252
g21
aL49411056283060112215432609176309964856L
aa(lp253
g2
aL49411056283060112215432609176309965376L
aa(lp254
g2
aL49411056283060112215432609176309965615L
aa(lp255
S'\x0cV'
p256
aL266003691477286198901011725417809478930L
aa(lp257
S'1\x0b\x0c\x17\x04P'
p258
aL314755909755515592000481005244904880298L
aa(lp259
S'7\\\x06'
p260
aL261578874264819908609102035485573088755L
aa(lp261
g21
aL49411056283060112215432609176309965542L
aa(lp262
g2
aL49411056283060112215432609176309965182L
aa(lp263
g2
aL49411056283060112215432609176309965402L
aa(lp264
g2
aL49411056283060112215432609176309965498L
aa(lp265
g2
aL49411056283060112215432609176309964855L
aa(lp266
g2
aL49411056283060112215432609176309965299L
aa(lp267
g2
aL49411056283060112215432609176309965419L
aa(lp268
g2
aL49411056283060112215432609176309964835L
aa(lp269
S'\x01Q'
p270
aL261578874264819908609102035485573088631L
aa(lp271
S'*\x16\x11'
p272
aL314755909755515592000481005244904880655L
aa(lp273
g2
aL49411056283060112215432609176309965045L
aa(lp274
g2
aL49411056283060112215432609176309965791L
aa(lp275
g2
aL49411056283060112215432609176309965194L
aa(lp276
g2
aL49411056283060112215432609176309965171L
aa(lp277
S'\n\x05'
p278
aL314755909755515592000481005244904881148L
aa(lp279
S'\x15\x06\x11\x04\x0cJZ'
p280
aL314755909755515592000481005244904880747L
aa(lp281
g2
aL49411056283060112215432609176309965362L
aa(lp282
g2
aL49411056283060112215432609176309965492L
aa(lp283
g2
aL49411056283060112215432609176309965433L
aa(lp284
S'\x04VT\x14\x1fFC'
p285
aL223974724102701384270894320508706362355L
aa(lp286
g2
aL49411056283060112215432609176309964938L
aa(lp287
S'\x10D\x06\x02]TZ['
p288
aL261578874264819908609102035485573088472L
aa(lp289
g2
aL49411056283060112215432609176309965264L
aa(lp290
S'"P'
p291
aL261578874264819908609102035485573089159L
aa(lp292
g2
aL49411056283060112215432609176309965073L
aa(lp293
S'-[\x17\x04'
p294
aL261578874264819908609102035485573088272L
aa(lp295
g2
aL49411056283060112215432609176309964889L
aa(lp296
g2
aL49411056283060112215432609176309965766L
aa(lp297
g2
aL49411056283060112215432609176309965775L
aa(lp298
g2
aL49411056283060112215432609176309965063L
aa(lp299
g2
aL49411056283060112215432609176309965574L
aa(lp300
g2
aL49411056283060112215432609176309965226L
aa(lp301
g2
aL49411056283060112215432609176309964994L
aa(lp302
S'\x15PV\x12'
p303
aL223974724102701384270894320508706362300L
aa(lp304
S'\x16\x0e\x02\x0e\x0f'
p305
aL314755909755515592000481005244904881009L
aa(lp306
S'\x0cWD\x12'
p307
aL223974724102701384270894320508706361410L
aa(lp308
g2
aL49411056283060112215432609176309965282L
aa(lp309
g2
aL49411056283060112215432609176309965704L
aa(lp310
g2
aL49411056283060112215432609176309965458L
aa(lp311
g2
aL49411056283060112215432609176309965616L
aa(lp312
g2
aL49411056283060112215432609176309965112L
aa(lp313
g2
aL49411056283060112215432609176309965340L
aa(lp314
g2
aL49411056283060112215432609176309964939L
aa(lp315
g2
aL49411056283060112215432609176309965283L
aa(lp316
g2
aL49411056283060112215432609176309965435L
aa(lp317
g2
aL49411056283060112215432609176309965234L
aa(lp318
g2
aL49411056283060112215432609176309965817L
aa(lp319
S'\n^'
p320
aL266003691477286198901011725417809478809L
aa(lp321
g2
aL49411056283060112215432609176309965403L
aa(lp322
g2
aL49411056283060112215432609176309965312L
aa(lp323
g2
aL49411056283060112215432609176309965629L
aa(lp324
g21
aL49411056283060112215432609176309965018L
aa(lp325
g2
aL49411056283060112215432609176309965161L
aa(lp326
S'\x04\x17\x17\x03\x00SD'
p327
aL314755909755515592000481005244904880292L
aa(lp328
g2
aL49411056283060112215432609176309965066L
aa(lp329
g2
aL49411056283060112215432609176309964956L
aa(lp330
g2
aL49411056283060112215432609176309965505L
aa(lp331
S'\x01\x1a\r\x03\x0eQT'
p332
aL314755909755515592000481005244904880366L
aa(lp333
S'\n\r\x0f\x1b'
p334
aL314755909755515592000481005244904880335L
aa(lp335
g2
aL49411056283060112215432609176309965477L
aa(lp336
g2
aL49411056283060112215432609176309965042L
aa(lp337
S'\x12MT\x17^WK'
p338
aL266003691477286198901011725417809479189L
aa(lp339
g2
aL49411056283060112215432609176309964905L
aa(lp340
g2
aL49411056283060112215432609176309965576L
aa(lp341
g2
aL49411056283060112215432609176309965446L
aa(lp342
g2
aL49411056283060112215432609176309965372L
aa(lp343
S'\x10\r\x10\x17\nLV\x07X\x07'
p344
aL314755909755515592000481005244904880683L
aa(lp345
g2
aL49411056283060112215432609176309964927L
aa(lp346
g2
aL49411056283060112215432609176309965815L
aa(lp347
g2
aL49411056283060112215432609176309965070L
aa(lp348
g2
aL49411056283060112215432609176309965334L
aa(lp349
g2
aL49411056283060112215432609176309964849L
aa(lp350
S'\x07[\x00\x14YW]L\x12'
p351
aL261578874264819908609102035485573089059L
aa(lp352
S'7P'
p353
aL261578874264819908609102035485573088630L
aa(lp354
g21
aL49411056283060112215432609176309965254L
aa(lp355
g2
aL49411056283060112215432609176309965371L
aa(lp356
S'\x02X\x0f'
p357
aL261578874264819908609102035485573088771L
aa(lp358
g2
aL49411056283060112215432609176309965150L
aa(lp359
S'\x0c\r\x15\x07\x11LR\x01'
p360
aL314755909755515592000481005244904880953L
aa(lp361
g2
aL49411056283060112215432609176309965809L
aa(lp362
g2
aL49411056283060112215432609176309965716L
aa(lp363
S'\x11\x06\x00\n\rQF\x10Q\x11'
p364
aL314755909755515592000481005244904880810L
aa(lp365
g2
aL49411056283060112215432609176309965593L
aa(lp366
g21
aL49411056283060112215432609176309965703L
aa(lp367
g2
aL49411056283060112215432609176309965199L
aa(lp368
g2
aL49411056283060112215432609176309965674L
aa(lp369
g2
aL49411056283060112215432609176309965379L
aa(lp370
g2
aL49411056283060112215432609176309965116L
aa(lp371
g2
aL49411056283060112215432609176309965162L
aa(lp372
g2
aL49411056283060112215432609176309964872L
aa(lp373
g2
aL49411056283060112215432609176309965132L
aa(lp374
g2
aL49411056283060112215432609176309965207L
aa(lp375
g2
aL49411056283060112215432609176309964922L
aa(lp376
S'\x07[\x00\x14YW]L'
p377
aL261578874264819908609102035485573088410L
aa(lp378
g2
aL49411056283060112215432609176309965088L
aa(lp379
g2
aL49411056283060112215432609176309964854L
aa(lp380
g21
aL49411056283060112215432609176309964807L
aa(lp381
S'5PR'
p382
aL223974724102701384270894320508706361599L
aa(lp383
S'\x03]'
p384
aL223974724102701384270894320508706361368L
aa(lp385
g2
aL49411056283060112215432609176309965804L
aa(lp386
g2
aL49411056283060112215432609176309965375L
aa(lp387
g2
aL49411056283060112215432609176309965284L
aa(lp388
g21
aL49411056283060112215432609176309965515L
aa(lp389
g2
aL49411056283060112215432609176309965305L
aa(lp390
g2
aL49411056283060112215432609176309964940L
aa(lp391
g2
aL49411056283060112215432609176309965159L
aa(lp392
g2
aL49411056283060112215432609176309965686L
aa(lp393
g2
aL49411056283060112215432609176309965406L
aa(lp394
S'\x11JX\x10\x0fRRK'
p395
aL223974724102701384270894320508706361470L
aa(lp396
g2
aL49411056283060112215432609176309964941L
aa(lp397
g2
aL49411056283060112215432609176309965746L
aa(lp398
S'\x0b\x0c\x17'
p399
aL314755909755515592000481005244904880195L
aa(lp400
g2
aL49411056283060112215432609176309964907L
aa(lp401
g2
aL49411056283060112215432609176309965685L
aa(lp402
S'\x04VV\x04\nSD'
p403
aL223974724102701384270894320508706361777L
aa(lp404
g2
aL49411056283060112215432609176309964809L
aa(lp405
g2
aL49411056283060112215432609176309965796L
aa(lp406
g2
aL49411056283060112215432609176309965174L
aa(lp407
g2
aL49411056283060112215432609176309965231L
aa(lp408
g2
aL49411056283060112215432609176309965453L
aa(lp409
g2
aL49411056283060112215432609176309965153L
aa(lp410
g2
aL49411056283060112215432609176309965152L
aa(lp411
g2
aL49411056283060112215432609176309964877L
aa(lp412
g2
aL49411056283060112215432609176309965538L
aa(lp413
g2
aL49411056283060112215432609176309965237L
aa(lp414
S'\x02_P\x0cYAL'
p415
aL266003691477286198901011725417809479186L
aa(lp416
S'\x05\x07'
p417
aL261578874264819908609102035485573088747L
aa(lp418
g2
aL49411056283060112215432609176309965767L
aa(lp419
g2
aL49411056283060112215432609176309965355L
aa(lp420
g2
aL49411056283060112215432609176309965560L
aa(lp421
g2
aL49411056283060112215432609176309965690L
aa(lp422
g2
aL49411056283060112215432609176309965165L
aa(lp423
g2
aL49411056283060112215432609176309965387L
aa(lp424
g21
aL49411056283060112215432609176309964845L
aa(lp425
S'\x0cJ'
p426
aL266003691477286198901011725417809479094L
aa(lp427
S'\x02'
p428
aL261578874264819908609102035485573088362L
aa(lp429
g2
aL49411056283060112215432609176309965249L
aa(lp430
S'\x07\x02\x17\x01\x0b'
p431
aL314755909755515592000481005244904880363L
aa(lp432
g2
aL49411056283060112215432609176309965325L
aa(lp433
g2
aL49411056283060112215432609176309965455L
aa(lp434
g2
aL49411056283060112215432609176309965457L
aa(lp435
g2
aL49411056283060112215432609176309965622L
aa(lp436
S'\rA\x0e\x03Q@'
p437
aL261578874264819908609102035485573088769L
aa(lp438
g2
aL49411056283060112215432609176309965337L
aa(lp439
S'\x0e^'
p440
aL223974724102701384270894320508706361704L
aa(lp441
g2
aL49411056283060112215432609176309965472L
aa(lp442
g21
aL49411056283060112215432609176309965322L
aa(lp443
g2
aL49411056283060112215432609176309964986L
aa(lp444
g2
aL49411056283060112215432609176309965427L
aa(lp445
S'\x15W'
p446
aL223974724102701384270894320508706361589L
aa(lp447
S'\x05\x06'
p448
aL261578874264819908609102035485573088296L
aa(lp449
g21
aL49411056283060112215432609176309964985L
aa(lp450
g2
aL49411056283060112215432609176309965374L
aa(lp451
g21
aL49411056283060112215432609176309965361L
aa(lp452
g2
aL49411056283060112215432609176309965768L
aa(lp453
g2
aL49411056283060112215432609176309965168L
aa(lp454
g2
aL49411056283060112215432609176309965594L
aa(lp455
g21
aL49411056283060112215432609176309965275L
aa(lp456
g2
aL49411056283060112215432609176309965532L
aa(lp457
g2
aL49411056283060112215432609176309965383L
aa(lp458
g21
aL49411056283060112215432609176309965391L
aa(lp459
g2
aL49411056283060112215432609176309965573L
aa(lp460
g2
aL49411056283060112215432609176309965326L
aa(lp461
S'\x02V^\x11_WJ'
p462
aL266003691477286198901011725417809479644L
aa(lp463
g2
aL49411056283060112215432609176309965712L
aa(lp464
S'\x08Q\x1a\x16[@W'
p465
aL261578874264819908609102035485573088684L
aa(lp466
g2
aL49411056283060112215432609176309965789L
aa(lp467
g2
aL49411056283060112215432609176309965122L
aa(lp468
S'\x06\x02\r'
p469
aL314755909755515592000481005244904880419L
aa(lp470
S'\x05YC\x07'
p471
aL223974724102701384270894320508706362135L
aa(lp472
g2
aL49411056283060112215432609176309965582L
aa(lp473
g2
aL49411056283060112215432609176309964842L
aa(lp474
g2
aL49411056283060112215432609176309965533L
aa(lp475
S'\x14QE\r'
p476
aL266003691477286198901011725417809479581L
aa(lp477
g2
aL49411056283060112215432609176309964887L
aa(lp478
g2
aL-49411056283060112215432609176309964984L
aa(lp479
g2
aL49411056283060112215432609176309965098L
aa(lp480
g2
aL49411056283060112215432609176309964864L
aa(lp481
g2
aL49411056283060112215432609176309965404L
aa(lp482
g2
aL49411056283060112215432609176309964846L
aa(lp483
g2
aL49411056283060112215432609176309965496L
aa(lp484
g2
aL49411056283060112215432609176309965569L
aa(lp485
S'\x00Z^\n\x0fBN'
p486
aL223974724102701384270894320508706362128L
aa(lp487
g2
aL49411056283060112215432609176309965595L
aa(lp488
g2
aL49411056283060112215432609176309965390L
aa(lp489
g2
aL49411056283060112215432609176309965729L
aa(lp490
g2
aL49411056283060112215432609176309964946L
aa(lp491
S'\x06\x0f\x0c\x17\x07'
p492
aL314755909755515592000481005244904880934L
aa(lp493
g2
aL49411056283060112215432609176309965192L
aa(lp494
g2
aL49411056283060112215432609176309964802L
aa(lp495
g2
aL49411056283060112215432609176309965133L
aa(lp496
g2
aL49411056283060112215432609176309965723L
aa(lp497
g2
aL49411056283060112215432609176309964866L
aa(lp498
g2
aL49411056283060112215432609176309965619L
aa(lp499
g2
aL49411056283060112215432609176309965652L
aa(lp500
g2
aL49411056283060112215432609176309965260L
aa(lp501
g2
aL49411056283060112215432609176309965489L
aa(lp502
g21
aL49411056283060112215432609176309964909L
aa(lp503
S'\x15\x11\x02\x01\x17QT\x04X'
p504
aL314755909755515592000481005244904880485L
aa(lp505
S'\x02\\P\x15C[N\x01'
p506
aL266003691477286198901011725417809478840L
aa(lp507
g2
aL49411056283060112215432609176309965423L
aa(lp508
g2
aL49411056283060112215432609176309965726L
aa(lp509
S'\x00T[\t\x11E'
p510
aL223974724102701384270894320508706361713L
aa(lp511
g2
aL49411056283060112215432609176309965413L
aa(lp512
g2
aL49411056283060112215432609176309964961L
aa(lp513
g21
aL49411056283060112215432609176309965577L
aa(lp514
g2
aL49411056283060112215432609176309965172L
aa(lp515
S'\x08V'
p516
aL223974724102701384270894320508706361361L
aa(lp517
g2
aL49411056283060112215432609176309965810L
aa(lp518
g21
aL49411056283060112215432609176309965368L
aa(lp519
g2
aL49411056283060112215432609176309965157L
aa(lp520
g2
aL49411056283060112215432609176309965336L
aa(lp521
g2
aL49411056283060112215432609176309965683L
aa(lp522
g21
aL49411056283060112215432609176309965019L
aa(lp523
g2
aL49411056283060112215432609176309965602L
aa(lp524
S'7PT'
p525
aL266003691477286198901011725417809479461L
aa(lp526
g2
aL49411056283060112215432609176309965805L
aa(lp527
g2
aL49411056283060112215432609176309965753L
aa(lp528
g2
aL49411056283060112215432609176309965590L
aa(lp529
g2
aL49411056283060112215432609176309965510L
aa(lp530
g2
aL49411056283060112215432609176309965589L
aa(lp531
g2
aL49411056283060112215432609176309965524L
aa(lp532
g2
aL49411056283060112215432609176309965724L
aa(lp533
g2
aL49411056283060112215432609176309965500L
aa(lp534
g2
aL49411056283060112215432609176309965506L
aa(lp535
S'\x0cR'
p536
aL261578874264819908609102035485573089223L
aa(lp537
g2
aL49411056283060112215432609176309965011L
aa(lp538
g2
aL49411056283060112215432609176309965186L
aa(lp539
S'\x06L\x02\x0cD^V'
p540
aL261578874264819908609102035485573089071L
aa(lp541
S'\x12\x0b\n\x01\x0b'
p542
aL314755909755515592000481005244904880447L
aa(lp543
g2
aL49411056283060112215432609176309965354L
aa(lp544
g2
aL49411056283060112215432609176309965094L
aa(lp545
g2
aL49411056283060112215432609176309965512L
aa(lp546
g2
aL49411056283060112215432609176309965373L
aa(lp547
g2
aL49411056283060112215432609176309965061L
aa(lp548
g2
aL49411056283060112215432609176309964971L
aa(lp549
g21
aL49411056283060112215432609176309964992L
aa(lp550
g2
aL49411056283060112215432609176309965699L
aa(lp551
S'\x07Q\x0f\x04@[\\V'
p552
aL261578874264819908609102035485573089024L
aa(lp553
g2
aL49411056283060112215432609176309964924L
aa(lp554
S'\x07\x02\x10\x07\x07'
p555
aL314755909755515592000481005244904881082L
aa(lp556
g2
aL49411056283060112215432609176309964962L
aa(lp557
g2
aL49411056283060112215432609176309965030L
aa(lp558
g21
aL49411056283060112215432609176309965252L
aa(lp559
g2
aL49411056283060112215432609176309964824L
aa(lp560
g2
aL49411056283060112215432609176309965245L
aa(lp561
g2
aL49411056283060112215432609176309965292L
aa(lp562
g2
aL49411056283060112215432609176309965794L
aa(lp563
g2
aL49411056283060112215432609176309964817L
aa(lp564
S'\x17W'
p565
aL266003691477286198901011725417809478884L
aa(lp566
g21
aL49411056283060112215432609176309965248L
aa(lp567
S'\x0c\r'
p568
aL314755909755515592000481005244904880833L
aa(lp569
g2
aL49411056283060112215432609176309964918L
aa(lp570
g2
aL49411056283060112215432609176309965689L
aa(lp571
g2
aL49411056283060112215432609176309965040L
aa(lp572
g2
aL49411056283060112215432609176309965684L
aa(lp573
g2
aL49411056283060112215432609176309965129L
aa(lp574
g2
aL49411056283060112215432609176309965787L
aa(lp575
g21
aL49411056283060112215432609176309965751L
aa(lp576
g2
aL49411056283060112215432609176309965115L
aa(lp577
g2
aL49411056283060112215432609176309965765L
aa(lp578
S'\x02TX\x13\x02'
p579
aL223974724102701384270894320508706361446L
aa(lp580
S'0g&'
p581
aL261578874264819908609102035485573089056L
aa(lp582
g2
aL49411056283060112215432609176309965608L
aa(lp583
g2
aL49411056283060112215432609176309964917L
aa(lp584
g2
aL49411056283060112215432609176309964873L
aa(lp585
S'\rU\x0e\x04XK'
p586
aL261578874264819908609102035485573088360L
aa(lp587
g21
aL49411056283060112215432609176309965603L
aa(lp588
S'\x02Z\x07'
p589
aL-261578874264819908609102035485573088412L
aa(lp590
S'\x16\x00\x0b\x07\x0e]'
p591
aL314755909755515592000481005244904880609L
aa(lp592
S'\x05]\x0f\x04\x19E\\J\x05'
p593
aL261578874264819908609102035485573088639L
aa(lp594
g2
aL49411056283060112215432609176309964963L
aa(lp595
g2
aL49411056283060112215432609176309965180L
aa(lp596
g2
aL49411056283060112215432609176309965302L
aa(lp597
S'\x11Q\x02\r'
p598
aL261578874264819908609102035485573089156L
aa(lp599
S'\x0cA\x11'
p600
aL261578874264819908609102035485573089192L
aa(lp601
g2
aL49411056283060112215432609176309965688L
aa(lp602
g2
aL49411056283060112215432609176309964988L
aa(lp603
S'\x02JT'
p604
aL266003691477286198901011725417809478668L
aa(lp605
g2
aL49411056283060112215432609176309965398L
aa(lp606
S'\x06\x0c\r\x11\x17JB\x06@\x0bZ\r'
p607
aL314755909755515592000481005244904880481L
aa(lp608
S'\x10W\x0b\x04YW'
p609
aL261578874264819908609102035485573089213L
aa(lp610
S'\x02\x06\r\x07\x11Y['
p611
aL314755909755515592000481005244904880571L
aa(lp612
g2
aL49411056283060112215432609176309965047L
aa(lp613
S'\x04VT\x14\x1fFCP\x0e\\'
p614
aL223974724102701384270894320508706361893L
aa(lp615
g2
aL49411056283060112215432609176309965784L
aa(lp616
g2
aL49411056283060112215432609176309964998L
aa(lp617
S'\x10@\x11\x14WFFJ\x04C'
p618
aL261578874264819908609102035485573088616L
aa(lp619
g2
aL49411056283060112215432609176309964903L
aa(lp620
g2
aL49411056283060112215432609176309964871L
aa(lp621
g2
aL49411056283060112215432609176309965627L
aa(lp622
g2
aL49411056283060112215432609176309965708L
aa(lp623
g2
aL49411056283060112215432609176309965266L
aa(lp624
S'\x0c\r\x06\x04\x05QT\x0cQ\x0cA'
p625
aL314755909755515592000481005244904880998L
aa(lp626
g2
aL49411056283060112215432609176309965076L
aa(lp627
g21
aL49411056283060112215432609176309965757L
aa(lp628
g2
aL49411056283060112215432609176309965558L
aa(lp629
g2
aL49411056283060112215432609176309965567L
aa(lp630
S'\x00\x1b\x13\x0e\n[^\x11X\x1b'
p631
aL314755909755515592000481005244904880357L
aa(lp632
g2
aL49411056283060112215432609176309965370L
aa(lp633
g2
aL49411056283060112215432609176309965225L
aa(lp634
g2
aL49411056283060112215432609176309965516L
aa(lp635
g2
aL49411056283060112215432609176309965675L
aa(lp636
g2
aL49411056283060112215432609176309965247L
aa(lp637
g2
aL49411056283060112215432609176309965269L
aa(lp638
g2
aL49411056283060112215432609176309965144L
aa(lp639
g2
aL49411056283060112215432609176309965353L
aa(lp640
g2
aL49411056283060112215432609176309965405L
aa(lp641
g2
aL49411056283060112215432609176309965399L
aa(lp642
g2
aL49411056283060112215432609176309965466L
aa(lp643
g2
aL49411056283060112215432609176309964880L
aa(lp644
S'\x02T^\x03\x08B'
p645
aL223974724102701384270894320508706362248L
aa(lp646
g2
aL49411056283060112215432609176309964991L
aa(lp647
g2
aL49411056283060112215432609176309965388L
aa(lp648
g2
aL49411056283060112215432609176309965085L
aa(lp649
S'\x14PT\x0b'
p650
aL266003691477286198901011725417809478764L
aa(lp651
S'\x11\x0b\x06'
p652
aL314755909755515592000481005244904880656L
aa(lp653
g2
aL49411056283060112215432609176309965502L
aa(lp654
S'\x10\x10\n\x0c\x04'
p655
aL314755909755515592000481005244904880568L
aa(lp656
g21
aL49411056283060112215432609176309965570L
aa(lp657
g2
aL49411056283060112215432609176309964843L
aa(lp658
g2
aL49411056283060112215432609176309965236L
aa(lp659
S'%]\x04\x14FW'
p660
aL261578874264819908609102035485573088740L
aa(lp661
S'\x0c\x10'
p662
aL314755909755515592000481005244904880192L
aa(lp663
g2
aL49411056283060112215432609176309965077L
aa(lp664
g2
aL49411056283060112215432609176309965033L
aa(lp665
S'\x00P^\x16R\\\x15\x0f\\\x1dC\x0c@\x02'
p666
aL266003691477286198901011725417809478830L
aa(lp667
g2
aL49411056283060112215432609176309965596L
aa(lp668
g2
aL49411056283060112215432609176309965424L
aa(lp669
g2
aL49411056283060112215432609176309965721L
aa(lp670
g2
aL49411056283060112215432609176309964891L
aa(lp671
g2
aL49411056283060112215432609176309965048L
aa(lp672
g2
aL49411056283060112215432609176309965537L
aa(lp673
g2
aL49411056283060112215432609176309965024L
aa(lp674
g2
aL49411056283060112215432609176309965575L
aa(lp675
g2
aL49411056283060112215432609176309964851L
aa(lp676
S'\x10\x10\x06'
p677
aL314755909755515592000481005244904880694L
aa(lp678
g2
aL49411056283060112215432609176309964800L
aa(lp679
g2
aL49411056283060112215432609176309965568L
aa(lp680
g2
aL49411056283060112215432609176309965350L
aa(lp681
g2
aL49411056283060112215432609176309964951L
aa(lp682
g21
aL49411056283060112215432609176309965163L
aa(lp683
g21
aL49411056283060112215432609176309964997L
aa(lp684
g2
aL49411056283060112215432609176309965592L
aa(lp685
g2
aL49411056283060112215432609176309964926L
aa(lp686
g2
aL49411056283060112215432609176309965176L
aa(lp687
S'\x0eNR\x14'
p688
aL223974724102701384270894320508706362218L
aa(lp689
g2
aL49411056283060112215432609176309964837L
aa(lp690
g2
aL49411056283060112215432609176309965149L
aa(lp691
S'2]V\x14\x05^V[\rW'
p692
aL223974724102701384270894320508706361585L
aa(lp693
g2
aL49411056283060112215432609176309965348L
aa(lp694
S'\x06\x0b\x0c\x11\x06V\x1a\x0eQ\x1bB\x0c\x17V'
p695
aL314755909755515592000481005244904880279L
aa(lp696
g2
aL49411056283060112215432609176309965267L
aa(lp697
g2
aL49411056283060112215432609176309965710L
aa(lp698
S'\x16\x17\x0c\x10\x02_R'
p699
aL314755909755515592000481005244904880457L
aa(lp700
S'\x00V'
p701
aL223974724102701384270894320508706361803L
aa(lp702
g2
aL49411056283060112215432609176309965430L
aa(lp703
g2
aL49411056283060112215432609176309964984L
aa(lp704
S'\x0fYE\x11R@'
p705
aL266003691477286198901011725417809479300L
aa(lp706
g2
aL49411056283060112215432609176309964944L
aa(lp707
S'2kr'
p708
aL223974724102701384270894320508706361502L
aa(lp709
g2
aL49411056283060112215432609176309965344L
aa(lp710
g2
aL49411056283060112215432609176309965649L
aa(lp711
g2
aL49411056283060112215432609176309965407L
aa(lp712
g2
aL49411056283060112215432609176309965358L
aa(lp713
g2
aL49411056283060112215432609176309965166L
aa(lp714
g2
aL49411056283060112215432609176309965793L
aa(lp715
g2
aL49411056283060112215432609176309965106L
aa(lp716
S'\x08LD'
p717
aL223974724102701384270894320508706361569L
aa(lp718
S'\x08\x02\x08\x07'
p719
aL314755909755515592000481005244904880211L
aa(lp720
g2
aL49411056283060112215432609176309965669L
aa(lp721
S"'g0$"
p722
aL261578874264819908609102035485573089086L
aa(lp723
g2
aL49411056283060112215432609176309965224L
aa(lp724
g2
aL49411056283060112215432609176309965692L
aa(lp725
g2
aL49411056283060112215432609176309965190L
aa(lp726
g21
aL49411056283060112215432609176309965178L
aa(lp727
S'\x16YN'
p728
aL223974724102701384270894320508706361432L
aa(lp729
g2
aL49411056283060112215432609176309965816L
aa(lp730
S'\x17U\x01\rQ'
p731
aL261578874264819908609102035485573089154L
aa(lp732
g2
aL49411056283060112215432609176309965481L
aa(lp733
g2
aL49411056283060112215432609176309965553L
aa(lp734
S'\x00\x1b\x17\x07\rK^\nZ'
p735
aL314755909755515592000481005244904880666L
aa(lp736
g2
aL49411056283060112215432609176309965286L
aa(lp737
S'\x03\x0c\x11'
p738
aL314755909755515592000481005244904880517L
aa(lp739
S'\x02F\x11\x00M'
p740
aL261578874264819908609102035485573088696L
aa(lp741
S'\x00'
p742
aL223974724102701384270894320508706361481L
aa(lp743
g2
aL49411056283060112215432609176309965814L
aa(lp744
g2
aL49411056283060112215432609176309964883L
aa(lp745
S'7G'
p746
aL261578874264819908609102035485573088433L
aa(lp747
S'\x04MP\x17V\\L\x01\\\x17'
p748
aL266003691477286198901011725417809478818L
aa(lp749
g2
aL49411056283060112215432609176309965409L
aa(lp750
g2
aL49411056283060112215432609176309965198L
aa(lp751
g21
aL49411056283060112215432609176309964995L
aa(lp752
g2
aL49411056283060112215432609176309965067L
aa(lp753
S'\x0c\r\x17\x17\nL^\x13Q\x0eL'
p754
aL314755909755515592000481005244904880616L
aa(lp755
g2
aL49411056283060112215432609176309965578L
aa(lp756
g2
aL49411056283060112215432609176309965508L
aa(lp757
g21
aL49411056283060112215432609176309965009L
aa(lp758
g2
aL49411056283060112215432609176309965008L
aa(lp759
g2
aL49411056283060112215432609176309964892L
aa(lp760
g2
aL49411056283060112215432609176309965717L
aa(lp761
g2
aL49411056283060112215432609176309965490L
aa(lp762
g2
aL49411056283060112215432609176309965467L
aa(lp763
g2
aL49411056283060112215432609176309964999L
aa(lp764
S'\x08UZ\x03\x02_VM\x04'
p765
aL223974724102701384270894320508706362071L
aa(lp766
g2
aL49411056283060112215432609176309965232L
aa(lp767
S'\nKB\x10R'
p768
aL266003691477286198901011725417809479296L
aa(lp769
g2
aL49411056283060112215432609176309965527L
aa(lp770
g2
aL49411056283060112215432609176309964964L
aa(lp771
g2
aL49411056283060112215432609176309965546L
aa(lp772
S'\x16QC\x0e\tCC'
p773
aL223974724102701384270894320508706362179L
aa(lp774
g2
aL49411056283060112215432609176309965189L
aa(lp775
g2
aL49411056283060112215432609176309964978L
aa(lp776
g2
aL49411056283060112215432609176309965294L
aa(lp777
g21
aL49411056283060112215432609176309965072L
aa(lp778
g2
aL49411056283060112215432609176309965217L
aa(lp779
g2
aL49411056283060112215432609176309964974L
aa(lp780
g2
aL49411056283060112215432609176309965771L
aa(lp781
g21
aL49411056283060112215432609176309965006L
aa(lp782
g2
aL49411056283060112215432609176309965819L
aa(lp783
g2
aL49411056283060112215432609176309965719L
aa(lp784
g2
aL49411056283060112215432609176309965666L
aa(lp785
g2
aL49411056283060112215432609176309965230L
aa(lp786
g2
aL49411056283060112215432609176309965346L
aa(lp787
S'\x0cZB\x00ED]\x00'
p788
aL266003691477286198901011725417809479317L
aa(lp789
g2
aL49411056283060112215432609176309965665L
aa(lp790
g2
aL49411056283060112215432609176309965709L
aa(lp791
g2
aL49411056283060112215432609176309965016L
aa(lp792
g21
aL49411056283060112215432609176309965261L
aa(lp793
g2
aL49411056283060112215432609176309965105L
aa(lp794
g2
aL49411056283060112215432609176309964904L
aa(lp795
g2
aL49411056283060112215432609176309965099L
aa(lp796
g2
aL49411056283060112215432609176309965218L
aa(lp797
g2
aL49411056283060112215432609176309964921L
aa(lp798
g2
aL49411056283060112215432609176309965727L
aa(lp799
g2
aL49411056283060112215432609176309965428L
aa(lp800
S'\x06NT\x0b'
p801
aL266003691477286198901011725417809479046L
aa(lp802
g21
aL49411056283060112215432609176309965380L
aa(lp803
S'\x14Q'
p804
aL261578874264819908609102035485573088377L
aa(lp805
g2
aL49411056283060112215432609176309965243L
aa(lp806
g2
aL49411056283060112215432609176309965025L
aa(lp807
g2
aL49411056283060112215432609176309965415L
aa(lp808
S'\x0cV]\x1c'
p809
aL266003691477286198901011725417809479679L
aa(lp810
g2
aL49411056283060112215432609176309965799L
aa(lp811
g2
aL49411056283060112215432609176309964969L
aa(lp812
g2
aL49411056283060112215432609176309965798L
aa(lp813
S'\x05[\x11'
p814
aL261578874264819908609102035485573089221L
aa(lp815
g2
aL49411056283060112215432609176309965014L
aa(lp816
S'\x13U\x07\x05]\\T'
p817
aL261578874264819908609102035485573088965L
aa(lp818
g2
aL49411056283060112215432609176309965694L
aa(lp819
g2
aL49411056283060112215432609176309965772L
aa(lp820
g2
aL49411056283060112215432609176309965609L
aa(lp821
g2
aL49411056283060112215432609176309965381L
aa(lp822
S'\x0cZ'
p823
aL261578874264819908609102035485573088762L
aa(lp824
S'\x12\n\x17\n'
p825
aL314755909755515592000481005244904881135L
aa(lp826
g2
aL49411056283060112215432609176309965093L
aa(lp827
g2
aL49411056283060112215432609176309964806L
aa(lp828
g2
aL49411056283060112215432609176309965521L
aa(lp829
S'\rW_HVVY\x14M\rB\x06'
p830
aL266003691477286198901011725417809478748L
aa(lp831
S'\x12]T\x13\x14S[@'
p832
aL223974724102701384270894320508706362287L
aa(lp833
g2
aL49411056283060112215432609176309964816L
aa(lp834
g2
aL49411056283060112215432609176309964981L
aa(lp835
S'\x06\x11\x1a\x12\x17WP\x17U\x12]\n\x06'
p836
aL314755909755515592000481005244904880868L
aa(lp837
S'\x0c\x17'
p838
aL314755909755515592000481005244904881120L
aa(lp839
g21
aL49411056283060112215432609176309965447L
aa(lp840
g2
aL49411056283060112215432609176309965311L
aa(lp841
g2
aL49411056283060112215432609176309965441L
aa(lp842
g21
aL49411056283060112215432609176309965021L
aa(lp843
g2
aL49411056283060112215432609176309965493L
aa(lp844
g2
aL49411056283060112215432609176309964813L
aa(lp845
S'\x04'
p846
aL314755909755515592000481005244904880897L
aa(lp847
g2
aL49411056283060112215432609176309965654L
aa(lp848
S'\x12]V\x14\x05^R]'
p849
aL223974724102701384270894320508706361907L
aa(lp850
S'\x16\x06\x00\x17\x11]'
p851
aL314755909755515592000481005244904880625L
aa(lp852
g2
aL49411056283060112215432609176309965543L
aa(lp853
S'\nVU\x00O'
p854
aL266003691477286198901011725417809478978L
aa(lp855
g2
aL49411056283060112215432609176309965051L
aa(lp856
g2
aL49411056283060112215432609176309964852L
aa(lp857
g2
aL49411056283060112215432609176309965715L
aa(lp858
g2
aL49411056283060112215432609176309965148L
aa(lp859
g2
aL49411056283060112215432609176309965800L
aa(lp860
g2
aL49411056283060112215432609176309965384L
aa(lp861
g2
aL49411056283060112215432609176309965504L
aa(lp862
g21
aL49411056283060112215432609176309965464L
aa(lp863
g2
aL49411056283060112215432609176309965017L
aa(lp864
g2
aL49411056283060112215432609176309965251L
aa(lp865
g2
aL49411056283060112215432609176309965092L
aa(lp866
g2
aL49411056283060112215432609176309965480L
aa(lp867
g2
aL49411056283060112215432609176309964810L
aa(lp868
g2
aL49411056283060112215432609176309965706L
aa(lp869
g2
aL49411056283060112215432609176309964803L
aa(lp870
g2
aL49411056283060112215432609176309965329L
aa(lp871
g2
aL49411056283060112215432609176309965744L
aa(lp872
g2
aL49411056283060112215432609176309965118L
aa(lp873
S'\x05WC\x08R@'
p874
aL266003691477286198901011725417809478713L
aa(lp875
S'\x16\x16\x13\x12\x0cJC'
p876
aL314755909755515592000481005244904880375L
aa(lp877
g2
aL49411056283060112215432609176309965209L
aa(lp878
g2
aL49411056283060112215432609176309965039L
aa(lp879
g2
aL49411056283060112215432609176309964967L
aa(lp880
S'\x12L^\n\n'
p881
aL223974724102701384270894320508706362245L
aa(lp882
g2
aL49411056283060112215432609176309965229L
aa(lp883
g2
aL49411056283060112215432609176309965426L
aa(lp884
g2
aL49411056283060112215432609176309965392L
aa(lp885
g2
aL49411056283060112215432609176309965259L
aa(lp886
g2
aL49411056283060112215432609176309964821L
aa(lp887
S'\x12MT\x0e'
p888
aL223974724102701384270894320508706361625L
aa(lp889
g2
aL49411056283060112215432609176309965027L
aa(lp890
g2
aL49411056283060112215432609176309965731L
aa(lp891
g2
aL49411056283060112215432609176309965479L
aa(lp892
g2
aL49411056283060112215432609176309965313L
aa(lp893
g2
aL49411056283060112215432609176309964882L
aa(lp894
S'\x12AZ\x0b\x03BEP\x02'
p895
aL223974724102701384270894320508706361639L
aa(lp896
g2
aL49411056283060112215432609176309965377L
aa(lp897
g2
aL49411056283060112215432609176309965208L
aa(lp898
g2
aL49411056283060112215432609176309965111L
aa(lp899
S'\x12YT\x14\x0fP^Z\x08\\\x01'
p900
aL223974724102701384270894320508706361859L
aa(lp901
g2
aL49411056283060112215432609176309965411L
aa(lp902
g2
aL49411056283060112215432609176309965214L
aa(lp903
g2
aL49411056283060112215432609176309965754L
aa(lp904
g2
aL49411056283060112215432609176309965324L
aa(lp905
S'\x01\x0c\x06\x11'
p906
aL314755909755515592000481005244904881127L
aa(lp907
g2
aL49411056283060112215432609176309965126L
aa(lp908
S'\x10\\\x0c\x16'
p909
aL261578874264819908609102035485573088707L
aa(lp910
g21
aL49411056283060112215432609176309964945L
aa(lp911
g2
aL49411056283060112215432609176309965462L
aa(lp912
g2
aL49411056283060112215432609176309965158L
aa(lp913
g2
aL49411056283060112215432609176309965223L
aa(lp914
g2
aL49411056283060112215432609176309964869L
aa(lp915
g2
aL49411056283060112215432609176309965036L
aa(lp916
g2
aL49411056283060112215432609176309965416L
aa(lp917
g2
aL49411056283060112215432609176309965327L
aa(lp918
g2
aL49411056283060112215432609176309964834L
aa(lp919
g2
aL49411056283060112215432609176309965363L
aa(lp920
S'\x17\\\x02\x15'
p921
aL261578874264819908609102035485573089157L
aa(lp922
g2
aL49411056283060112215432609176309965003L
aa(lp923
S'60&OR'
p924
aL314755909755515592000481005244904880468L
aa(lp925
g2
aL49411056283060112215432609176309965551L
aa(lp926
g21
aL49411056283060112215432609176309965520L
aa(lp927
g2
aL49411056283060112215432609176309965624L
aa(lp928
g2
aL49411056283060112215432609176309965668L
aa(lp929
g2
aL49411056283060112215432609176309965367L
aa(lp930
g2
aL49411056283060112215432609176309965707L
aa(lp931
g21
aL49411056283060112215432609176309965010L
aa(lp932
g2
aL49411056283060112215432609176309965145L
aa(lp933
g2
aL49411056283060112215432609176309964833L
aa(lp934
g2
aL49411056283060112215432609176309965572L
aa(lp935
g2
aL49411056283060112215432609176309965442L
aa(lp936
g2
aL49411056283060112215432609176309965187L
aa(lp937
g2
aL49411056283060112215432609176309965167L
aa(lp938
g2
aL49411056283060112215432609176309965185L
aa(lp939
g21
aL49411056283060112215432609176309964954L
aa(lp940
S'\x0c^'
p941
aL266003691477286198901011725417809479206L
aa(lp942
S'\x0b\x0c\rO\x02\\V\x15@\x0bC\x06'
p943
aL314755909755515592000481005244904880756L
aa(lp944
g2
aL49411056283060112215432609176309965082L
aa(lp945
g2
aL49411056283060112215432609176309965386L
aa(lp946
g2
aL49411056283060112215432609176309964920L
aa(lp947
g2
aL49411056283060112215432609176309965142L
aa(lp948
g2
aL49411056283060112215432609176309965221L
aa(lp949
g2
aL49411056283060112215432609176309965452L
aa(lp950
g2
aL49411056283060112215432609176309965554L
aa(lp951
g21
aL49411056283060112215432609176309964955L
aa(lp952
S'\x12LX\x14\x07QR'
p953
aL223974724102701384270894320508706362330L
aa(lp954
g2
aL49411056283060112215432609176309964828L
aa(lp955
g2
aL49411056283060112215432609176309965530L
aa(lp956
g2
aL49411056283060112215432609176309964977L
aa(lp957
g2
aL49411056283060112215432609176309965797L
aa(lp958
S'\x17PT'
p959
aL266003691477286198901011725417809479595L
aa(lp960
S' spW'
p961
aL266003691477286198901011725417809479419L
aa(lp962
S'\n\x13\x17\x0b\x0eY['
p963
aL314755909755515592000481005244904880972L
aa(lp964
g2
aL49411056283060112215432609176309965672L
aa(lp965
g2
aL49411056283060112215432609176309965626L
aa(lp966
g2
aL49411056283060112215432609176309965682L
aa(lp967
g2
aL49411056283060112215432609176309965534L
aa(lp968
S'\x01YB\x00S'
p969
aL266003691477286198901011725417809478771L
aa(lp970
S'\x0cM\x06L'
p971
aL314755909755515592000481005244904880345L
aa(lp972
S'\nG'
p973
aL261578874264819908609102035485573088483L
aa(lp974
g2
aL49411056283060112215432609176309965566L
aa(lp975
S'\x04\r'
p976
aL314755909755515592000481005244904880218L
aa(lp977
S'\x07U\x17\x00'
p978
aL261578874264819908609102035485573088322L
aa(lp979
S'\x16\x17\x11\x17\x00LB\x17Q'
p980
aL314755909755515592000481005244904880475L
aa(lp981
S'\x02X\x10\x04'
p982
aL261578874264819908609102035485573088779L
aa(lp983
S'\x0cB\x06\x13'
p984
aL261578874264819908609102035485573088610L
aa(lp985
g2
aL49411056283060112215432609176309965102L
aa(lp986
S'\x08K'
p987
aL-223974724102701384270894320508706361901L
aa(lp988
g2
aL49411056283060112215432609176309965821L
aa(lp989
g2
aL49411056283060112215432609176309964836L
aa(lp990
g2
aL49411056283060112215432609176309965191L
aa(lp991
g2
aL49411056283060112215432609176309964858L
aa(lp992
S'\x00[\r\x15U[]]\x05'
p993
aL261578874264819908609102035485573088595L
aa(lp994
g2
aL49411056283060112215432609176309965476L
aa(lp995
g2
aL49411056283060112215432609176309965783L
aa(lp996
g2
aL49411056283060112215432609176309965278L
aa(lp997
g2
aL49411056283060112215432609176309964839L
aa(lp998
g2
aL49411056283060112215432609176309965170L
aa(lp999
g2
aL49411056283060112215432609176309965501L
aa(lp1000
g2
aL49411056283060112215432609176309965034L
aa(lp1001
g2
aL49411056283060112215432609176309965241L
aa(lp1002
g2
aL49411056283060112215432609176309964902L
aa(lp1003
g21
aL49411056283060112215432609176309965519L
aa(lp1004
g2
aL49411056283060112215432609176309964928L
aa(lp1005
g2
aL49411056283060112215432609176309965421L
aa(lp1006
S'\x08Q\x1a\x16[@WK'
p1007
aL261578874264819908609102035485573088315L
aa(lp1008
g2
aL49411056283060112215432609176309965035L
aa(lp1009
S'\x0eMC\x15\tCEZ\x04'
p1010
aL223974724102701384270894320508706362065L
aa(lp1011
g2
aL49411056283060112215432609176309965274L
aa(lp1012
g2
aL49411056283060112215432609176309964818L
aa(lp1013
g2
aL49411056283060112215432609176309964975L
aa(lp1014
g2
aL49411056283060112215432609176309965211L
aa(lp1015
g2
aL49411056283060112215432609176309965667L
aa(lp1016
g2
aL49411056283060112215432609176309964808L
aa(lp1017
g2
aL49411056283060112215432609176309965579L
aa(lp1018
g2
aL49411056283060112215432609176309965677L
aa(lp1019
S' spT'
p1020
aL266003691477286198901011725417809478972L
aa(lp1021
g2
aL49411056283060112215432609176309965778L
aa(lp1022
g2
aL49411056283060112215432609176309965265L
aa(lp1023
g2
aL49411056283060112215432609176309964898L
aa(lp1024
g2
aL49411056283060112215432609176309965522L
aa(lp1025
g2
aL49411056283060112215432609176309964867L
aa(lp1026
S'\x15P^\x15'
p1027
aL223974724102701384270894320508706361371L
aa(lp1028
g2
aL49411056283060112215432609176309964819L
aa(lp1029
g2
aL49411056283060112215432609176309964901L
aa(lp1030
g2
aL49411056283060112215432609176309965055L
aa(lp1031
S'\x16\x06\x00\x17\x11QC\x1c'
p1032
aL314755909755515592000481005244904880219L
aa(lp1033
g2
aL49411056283060112215432609176309965293L
aa(lp1034
g2
aL49411056283060112215432609176309965005L
aa(lp1035
S'\x06\x0f\n\x07\rLD'
p1036
aL314755909755515592000481005244904880667L
aa(lp1037
g2
aL49411056283060112215432609176309965100L
aa(lp1038
g2
aL49411056283060112215432609176309964935L
aa(lp1039
g2
aL49411056283060112215432609176309965786L
aa(lp1040
g2
aL49411056283060112215432609176309964886L
aa(lp1041
g2
aL49411056283060112215432609176309965625L
aa(lp1042
g2
aL49411056283060112215432609176309965257L
aa(lp1043
g2
aL49411056283060112215432609176309965285L
aa(lp1044
g2
aL49411056283060112215432609176309965655L
aa(lp1045
S'\x17\\\x11\x04Q'
p1046
aL261578874264819908609102035485573088982L
aa(lp1047
g2
aL49411056283060112215432609176309965120L
aa(lp1048
g2
aL49411056283060112215432609176309965131L
aa(lp1049
g21
aL49411056283060112215432609176309964820L
aa(lp1050
S'\x02F\x06'
p1051
aL261578874264819908609102035485573088549L
aa(lp1052
S'\x13U\n\x13G'
p1053
aL261578874264819908609102035485573088884L
aa(lp1054
g2
aL49411056283060112215432609176309965130L
aa(lp1055
g2
aL49411056283060112215432609176309964906L
aa(lp1056
S'\x17\\\n\x12'
p1057
aL261578874264819908609102035485573088903L
aa(lp1058
S'\x14VC\x14\x13EC\\\x05'
p1059
aL223974724102701384270894320508706362182L
aa(lp1060
S'\x01A\n\r@'
p1061
aL261578874264819908609102035485573089256L
aa(lp1062
g2
aL49411056283060112215432609176309965071L
aa(lp1063
g2
aL49411056283060112215432609176309965028L
aa(lp1064
g2
aL49411056283060112215432609176309964947L
aa(lp1065
g2
aL49411056283060112215432609176309965607L
aa(lp1066
g2
aL49411056283060112215432609176309965431L
aa(lp1067
g2
aL49411056283060112215432609176309965741L
aa(lp1068
g2
aL49411056283060112215432609176309964996L
aa(lp1069
g2
aL49411056283060112215432609176309964862L
aa(lp1070
g2
aL49411056283060112215432609176309965345L
aa(lp1071
g2
aL49411056283060112215432609176309965206L
aa(lp1072
g2
aL49411056283060112215432609176309965046L
aa(lp1073
g2
aL49411056283060112215432609176309965748L
aa(lp1074
g2
aL49411056283060112215432609176309965117L
aa(lp1075
g2
aL49411056283060112215432609176309965200L
aa(lp1076
g2
aL49411056283060112215432609176309964881L
aa(lp1077
S'\nVU\x00GWV\x00\\\n@'
p1078
aL266003691477286198901011725417809478792L
aa(lp1079
g2
aL49411056283060112215432609176309964829L
aa(lp1080
g2
aL49411056283060112215432609176309964913L
aa(lp1081
g2
aL49411056283060112215432609176309965339L
aa(lp1082
g2
aL49411056283060112215432609176309965059L
aa(lp1083
S'\x0b]\x07\x04'
p1084
aL261578874264819908609102035485573088697L
aa(lp1085
g2
aL49411056283060112215432609176309965175L
aa(lp1086
g2
aL49411056283060112215432609176309965304L
aa(lp1087
S'&("S'
p1088
aL314755909755515592000481005244904880849L
aa(lp1089
g2
aL49411056283060112215432609176309965235L
aa(lp1090
g2
aL49411056283060112215432609176309965087L
aa(lp1091
g2
aL49411056283060112215432609176309964857L
aa(lp1092
S'\nV'
p1093
aL266003691477286198901011725417809479505L
aa(lp1094
g2
aL49411056283060112215432609176309965818L
aa(lp1095
g2
aL49411056283060112215432609176309965763L
aa(lp1096
g2
aL49411056283060112215432609176309965004L
aa(lp1097
g2
aL49411056283060112215432609176309965263L
aa(lp1098
g2
aL49411056283060112215432609176309965513L
aa(lp1099
g2
aL49411056283060112215432609176309965497L
aa(lp1100
g2
aL49411056283060112215432609176309965213L
aa(lp1101
g2
aL49411056283060112215432609176309965747L
aa(lp1102
g2
aL49411056283060112215432609176309964826L
aa(lp1103
g2
aL49411056283060112215432609176309965049L
aa(lp1104
g2
aL49411056283060112215432609176309965173L
aa(lp1105
g2
aL49411056283060112215432609176309964822L
aa(lp1106
g2
aL49411056283060112215432609176309965320L
aa(lp1107
g2
aL49411056283060112215432609176309965250L
aa(lp1108
g2
aL49411056283060112215432609176309964970L
aa(lp1109
g2
aL49411056283060112215432609176309964916L
aa(lp1110
S'\x06VR\x17NBL\x01]'
p1111
aL266003691477286198901011725417809479346L
aa(lp1112
g2
aL49411056283060112215432609176309965678L
aa(lp1113
g2
aL49411056283060112215432609176309964832L
aa(lp1114
g2
aL49411056283060112215432609176309965188L
aa(lp1115
g2
aL49411056283060112215432609176309964979L
aa(lp1116
g2
aL49411056283060112215432609176309965788L
aa(lp1117
g2
aL49411056283060112215432609176309965614L
aa(lp1118
S'\x01\n\x11\x07\x00L'
p1119
aL314755909755515592000481005244904881112L
aa(lp1120
g2
aL49411056283060112215432609176309965060L
aa(lp1121
g21
aL49411056283060112215432609176309965486L
aa(lp1122
g2
aL49411056283060112215432609176309965378L
aa(lp1123
S'\x04\x04\x02\x0b\rKC'
p1124
aL314755909755515592000481005244904881040L
aa(lp1125
S'R'
p1126
aL261578874264819908609102035485573089231L
aa(lp1127
g2
aL49411056283060112215432609176309965141L
aa(lp1128
g2
aL49411056283060112215432609176309965725L
aa(lp1129
S'\x10]R\x10E[L\x1d'
p1130
aL266003691477286198901011725417809479274L
aa(lp1131
S'\x0cZ\x0f\x18'
p1132
aL261578874264819908609102035485573088351L
aa(lp1133
g2
aL49411056283060112215432609176309965604L
aa(lp1134
S'\x15PR'
p1135
aL223974724102701384270894320508706361454L
aa(lp1136
g2
aL49411056283060112215432609176309965287L
aa(lp1137
g2
aL49411056283060112215432609176309965393L
aa(lp1138
g21
aL49411056283060112215432609176309965525L
aa(lp1139
g2
aL49411056283060112215432609176309965032L
aa(lp1140
g2
aL49411056283060112215432609176309965776L
aa(lp1141
g2
aL49411056283060112215432609176309965812L
aa(lp1142
g21
aL49411056283060112215432609176309965303L
aa(lp1143
S'\x14[\x16\rP'
p1144
aL261578874264819908609102035485573088701L
aa(lp1145
S'\x16\x06\x02\x10\x00PR\x16'
p1146
aL314755909755515592000481005244904880903L
aa(lp1147
S'\n\x13\x06\x10\x02L^\nZ\x11'
p1148
aL314755909755515592000481005244904880622L
aa(lp1149
S'\x04\x10\r\x0f\x13LX\x11]\x01T\x0f\tK'
p1150
aL314755909755515592000481005244904880895L
aa(lp1151
g2
aL49411056283060112215432609176309965296L
aa(lp1152
S'\x13JT\x13^]M\x17'
p1153
aL266003691477286198901011725417809479187L
aa(lp1154
g2
aL49411056283060112215432609176309965057L
aa(lp1155
g2
aL49411056283060112215432609176309964923L
aa(lp1156
g2
aL49411056283060112215432609176309965540L
aa(lp1157
g2
aL49411056283060112215432609176309965531L
aa(lp1158
g2
aL49411056283060112215432609176309965276L
aa(lp1159
g2
aL49411056283060112215432609176309965552L
aa(lp1160
g2
aL49411056283060112215432609176309965760L
aa(lp1161
g2
aL49411056283060112215432609176309965097L
aa(lp1162
g2
aL49411056283060112215432609176309964912L
aa(lp1163
S'\x17\\\x06'
p1164
aL261578874264819908609102035485573088635L
aa(lp1165
g21
aL49411056283060112215432609176309965242L
aa(lp1166
g2
aL49411056283060112215432609176309965651L
aa(lp1167
g2
aL49411056283060112215432609176309965445L
aa(lp1168
S'\x11Q\x10\x11QQGQ\x17U'
p1169
aL261578874264819908609102035485573088429L
aa(lp1170
g2
aL49411056283060112215432609176309964838L
aa(lp1171
S'\x08\x06\x02\x0c\x10'
p1172
aL314755909755515592000481005244904880312L
aa(lp1173
S'*Z'
p1174
aL261578874264819908609102035485573088434L
aa(lp1175
g2
aL49411056283060112215432609176309965356L
aa(lp1176
g2
aL49411056283060112215432609176309965056L
aa(lp1177
g21
aL49411056283060112215432609176309965155L
aa(lp1178
g2
aL49411056283060112215432609176309964973L
aa(lp1179
g2
aL49411056283060112215432609176309965514L
aa(lp1180
g2
aL49411056283060112215432609176309965456L
aa(lp1181
g2
aL49411056283060112215432609176309964830L
aa(lp1182
g2
aL49411056283060112215432609176309965465L
aa(lp1183
g2
aL49411056283060112215432609176309965233L
aa(lp1184
g2
aL49411056283060112215432609176309965711L
aa(lp1185
S'\x02LE\x04TYK'
p1186
aL266003691477286198901011725417809479547L
aa(lp1187
g2
aL49411056283060112215432609176309965556L
aa(lp1188
g2
aL49411056283060112215432609176309965697L
aa(lp1189
g2
aL49411056283060112215432609176309965291L
aa(lp1190
g2
aL49411056283060112215432609176309965432L
aa(lp1191
g2
aL49411056283060112215432609176309965509L
aa(lp1192
S'\x06\x0c\r\x11\x17YY\x11G'
p1193
aL314755909755515592000481005244904880145L
aa(lp1194
g2
aL49411056283060112215432609176309965653L
aa(lp1195
g2
aL49411056283060112215432609176309965606L
aa(lp1196
g2
aL49411056283060112215432609176309965563L
aa(lp1197
S'\x15\x11\x0c\x14\n\\R'
p1198
aL314755909755515592000481005244904880979L
aa(lp1199
g2
aL49411056283060112215432609176309965289L
aa(lp1200
g2
aL49411056283060112215432609176309965730L
aa(lp1201
g2
aL49411056283060112215432609176309965308L
aa(lp1202
g2
aL49411056283060112215432609176309965822L
aa(lp1203
g2
aL49411056283060112215432609176309965722L
aa(lp1204
g2
aL49411056283060112215432609176309965528L
aa(lp1205
g2
aL49411056283060112215432609176309964900L
aa(lp1206
g21
aL49411056283060112215432609176309965210L
aa(lp1207
g2
aL49411056283060112215432609176309964859L
aa(lp1208
g2
aL49411056283060112215432609176309965273L
aa(lp1209
S'\nK'
p1210
aL266003691477286198901011725417809479079L
aa(lp1211
g2
aL49411056283060112215432609176309965485L
aa(lp1212
g2
aL49411056283060112215432609176309965702L
aa(lp1213
S'\x14\x07'
p1214
aL261578874264819908609102035485573088627L
aa(lp1215
g2
aL49411056283060112215432609176309965023L
aa(lp1216
g2
aL49411056283060112215432609176309965179L
aa(lp1217
g2
aL49411056283060112215432609176309965360L
aa(lp1218
g2
aL49411056283060112215432609176309965695L
aa(lp1219
g2
aL49411056283060112215432609176309965471L
aa(lp1220
g2
aL49411056283060112215432609176309965135L
aa(lp1221
g2
aL49411056283060112215432609176309965468L
aa(lp1222
g2
aL49411056283060112215432609176309965164L
aa(lp1223
S'\x08L'
p1224
aL223974724102701384270894320508706361613L
aa.