(lp0
(lp1
S'#EMPTY#'
p2
aL49411056283060112215432609176309965597L
aa(lp3
g2
aL49411056283060112215432609176309964859L
aa(lp4
g2
aL49411056283060112215432609176309965573L
aa(lp5
g2
aL49411056283060112215432609176309965161L
aa(lp6
L286943754984336685489182170392022394978L
aL286943754984336685489182170392022395310L
aa(lp7
g2
aL49411056283060112215432609176309965231L
aa(lp8
g2
aL49411056283060112215432609176309964943L
aa(lp9
g2
aL49411056283060112215432609176309965536L
aa(lp10
g2
aL49411056283060112215432609176309964846L
aa(lp11
g2
aL49411056283060112215432609176309965452L
aa(lp12
L263684593990701565534997284813480879340L
aL-263684593990701565534997284813480879343L
aa(lp13
g2
aL49411056283060112215432609176309965469L
aa(lp14
g2
aL49411056283060112215432609176309965691L
aa(lp15
g2
aL49411056283060112215432609176309965775L
aa(lp16
g2
aL49411056283060112215432609176309965753L
aa(lp17
L126232143572727172016941488077090196433L
aL-126232143572727172016941488077090196435L
aa(lp18
L214864517552000554540821831799099160837L
aL-214864517552000554540821831799099160837L
aa(lp19
L58994471207260148389833531789060503694L
aL-58994471207260148389833531789060503694L
aa(lp20
g2
aL49411056283060112215432609176309965468L
aa(lp21
g2
aL49411056283060112215432609176309965676L
aa(lp22
L192786527457361319826756884412515781160L
aL-192786527457361319826756884412515781162L
aa(lp23
g2
aL49411056283060112215432609176309964974L
aa(lp24
g2
aL49411056283060112215432609176309965426L
aa(lp25
g2
aL49411056283060112215432609176309965472L
aa(lp26
g2
aL49411056283060112215432609176309965391L
aa(lp27
g2
aL49411056283060112215432609176309965709L
aa(lp28
L32816812968184756120760590370684751467L
aL-32816812968184756120760590370684751465L
aa(lp29
g2
aL49411056283060112215432609176309965611L
aa(lp30
g2
aL49411056283060112215432609176309965401L
aa(lp31
L289159173699889222037558937124601355327L
aL-289159173699889222037558937124601355325L
aa(lp32
L100741677641391260653724673163508469818L
aL-100741677641391260653724673163508469820L
aa(lp33
g2
aL49411056283060112215432609176309965312L
aa(lp34
g2
aL49411056283060112215432609176309965612L
aa(lp35
g2
aL49411056283060112215432609176309965477L
aa(lp36
g2
aL49411056283060112215432609176309965485L
aa(lp37
L127307451796203264750061527487254070076L
aL-127307451796203264750061527487254070080L
aa(lp38
g2
aL49411056283060112215432609176309965443L
aa(lp39
g2
aL49411056283060112215432609176309965128L
aa(lp40
g2
aL49411056283060112215432609176309965018L
aa(lp41
g2
aL49411056283060112215432609176309965799L
aa(lp42
g2
aL49411056283060112215432609176309965358L
aa(lp43
g2
aL49411056283060112215432609176309965130L
aa(lp44
L84897985725866866563678630807813783682L
aL-84897985725866866563678630807813783684L
aa(lp45
g2
aL49411056283060112215432609176309965134L
aa(lp46
g2
aL49411056283060112215432609176309965492L
aa(lp47
L151574470634924652819956701765567191446L
aL-151574470634924652819956701765567191443L
aa(lp48
g2
aL49411056283060112215432609176309965383L
aa(lp49
g2
aL49411056283060112215432609176309964831L
aa(lp50
L78065621931927449732560292189426199962L
aL-78065621931927449732560292189426199962L
aa(lp51
g2
aL49411056283060112215432609176309964849L
aa(lp52
L209867135995175714916873693366764796958L
aL-209867135995175714916873693366764796960L
aa(lp53
g2
aL49411056283060112215432609176309964999L
aa(lp54
L16955237001963240173058271559858726501L
aL16955237001963240173058271559858726869L
aa(lp55
g2
aL49411056283060112215432609176309965796L
aa(lp56
g2
aL49411056283060112215432609176309965598L
aa(lp57
g2
aL49411056283060112215432609176309965068L
aa(lp58
g2
aL49411056283060112215432609176309965315L
aa(lp59
g2
aL49411056283060112215432609176309965590L
aa(lp60
g2
aL49411056283060112215432609176309964983L
aa(lp61
g2
aL49411056283060112215432609176309965654L
aa(lp62
g2
aL49411056283060112215432609176309965131L
aa(lp63
g2
aL49411056283060112215432609176309964955L
aa(lp64
g2
aL49411056283060112215432609176309965263L
aa(lp65
g2
aL49411056283060112215432609176309965028L
aa(lp66
g2
aL49411056283060112215432609176309965762L
aa(lp67
g2
aL49411056283060112215432609176309965218L
aa(lp68
g2
aL49411056283060112215432609176309965003L
aa(lp69
g2
aL49411056283060112215432609176309965201L
aa(lp70
g2
aL49411056283060112215432609176309965621L
aa(lp71
g2
aL49411056283060112215432609176309965606L
aa(lp72
g2
aL49411056283060112215432609176309964946L
aa(lp73
g2
aL49411056283060112215432609176309964827L
aa(lp74
g2
aL49411056283060112215432609176309965740L
aa(lp75
g2
aL49411056283060112215432609176309965350L
aa(lp76
L238087300468626098212528049292537965393L
aL-238087300468626098212528049292537965395L
aa(lp77
g2
aL49411056283060112215432609176309965563L
aa(lp78
L327088108207524322577435750565968999661L
aL-327088108207524322577435750565968999663L
aa(lp79
L44322346982202462658822084698240404056L
aL-44322346982202462658822084698240404058L
aa(lp80
g2
aL49411056283060112215432609176309965141L
aa(lp81
g2
aL49411056283060112215432609176309965465L
aa(lp82
g2
aL49411056283060112215432609176309965603L
aa(lp83
g2
aL49411056283060112215432609176309965604L
aa(lp84
g2
aL49411056283060112215432609176309964894L
aa(lp85
g2
aL49411056283060112215432609176309965235L
aa(lp86
g2
aL49411056283060112215432609176309965152L
aa(lp87
g2
aL49411056283060112215432609176309964875L
aa(lp88
g2
aL49411056283060112215432609176309965037L
aa(lp89
L296860244203163120083595804079115727647L
aL-296860244203163120083595804079115727644L
aa(lp90
g2
aL49411056283060112215432609176309965353L
aa(lp91
g2
aL49411056283060112215432609176309965099L
aa(lp92
g2
aL49411056283060112215432609176309965623L
aa(lp93
g2
aL49411056283060112215432609176309965136L
aa(lp94
L151559969496351441730333580791845764267L
aL-151559969496351441730333580791845764267L
aa(lp95
L251356564324236866913781031722499593796L
aL-251356564324236866913781031722499593798L
aa(lp96
g2
aL49411056283060112215432609176309965250L
aa(lp97
g2
aL49411056283060112215432609176309965478L
aa(lp98
g2
aL49411056283060112215432609176309965299L
aa(lp99
g2
aL49411056283060112215432609176309965016L
aa(lp100
L268540913666170723035063153648274439872L
aL-268540913666170723035063153648274439875L
aa(lp101
g2
aL49411056283060112215432609176309965248L
aa(lp102
L36914644705384621381497570647033269563L
aL-36914644705384621381497570647033269561L
aa(lp103
g2
aL49411056283060112215432609176309965564L
aa(lp104
g2
aL49411056283060112215432609176309965510L
aa(lp105
g2
aL49411056283060112215432609176309965789L
aa(lp106
g2
aL49411056283060112215432609176309965103L
aa(lp107
g2
aL49411056283060112215432609176309965322L
aa(lp108
g2
aL49411056283060112215432609176309965745L
aa(lp109
L262605400846137634304049471690678552063L
aL-262605400846137634304049471690678552063L
aa(lp110
g2
aL49411056283060112215432609176309964902L
aa(lp111
g2
aL49411056283060112215432609176309964886L
aa(lp112
g2
aL49411056283060112215432609176309965372L
aa(lp113
g2
aL49411056283060112215432609176309965489L
aa(lp114
g2
aL49411056283060112215432609176309965820L
aa(lp115
g2
aL49411056283060112215432609176309965423L
aa(lp116
g2
aL49411056283060112215432609176309965821L
aa(lp117
g2
aL49411056283060112215432609176309965437L
aa(lp118
g2
aL49411056283060112215432609176309965323L
aa(lp119
g2
aL49411056283060112215432609176309965160L
aa(lp120
g2
aL49411056283060112215432609176309965417L
aa(lp121
g2
aL49411056283060112215432609176309964910L
aa(lp122
g2
aL49411056283060112215432609176309964837L
aa(lp123
g2
aL49411056283060112215432609176309965569L
aa(lp124
g2
aL49411056283060112215432609176309965119L
aa(lp125
g2
aL49411056283060112215432609176309965711L
aa(lp126
g2
aL49411056283060112215432609176309964806L
aa(lp127
L339102728661110485812516909252493347562L
aL-339102728661110485812516909252493347564L
aa(lp128
L197953247472502228196316330075229709550L
aL-197953247472502228196316330075229709549L
aa(lp129
g2
aL49411056283060112215432609176309965276L
aa(lp130
g2
aL49411056283060112215432609176309964836L
aa(lp131
g2
aL49411056283060112215432609176309965046L
aa(lp132
g2
aL49411056283060112215432609176309965790L
aa(lp133
g2
aL49411056283060112215432609176309965352L
aa(lp134
g2
aL49411056283060112215432609176309965730L
aa(lp135
g2
aL49411056283060112215432609176309965214L
aa(lp136
g2
aL49411056283060112215432609176309965356L
aa(lp137
g2
aL49411056283060112215432609176309965439L
aa(lp138
g2
aL49411056283060112215432609176309965759L
aa(lp139
g2
aL49411056283060112215432609176309965746L
aa(lp140
g2
aL49411056283060112215432609176309965669L
aa(lp141
L200540641780677684777608802031900990389L
aL-200540641780677684777608802031900990391L
aa(lp142
g2
aL49411056283060112215432609176309965271L
aa(lp143
g2
aL49411056283060112215432609176309965683L
aa(lp144
L162256203888854075966814430391946915572L
aL-162256203888854075966814430391946915574L
aa(lp145
g2
aL49411056283060112215432609176309965436L
aa(lp146
g2
aL49411056283060112215432609176309965320L
aa(lp147
L175487434728105923217022080845734521875L
aL175487434728105923217022080845734522713L
aa(lp148
g2
aL49411056283060112215432609176309965080L
aa(lp149
g2
aL49411056283060112215432609176309965359L
aa(lp150
g2
aL49411056283060112215432609176309965284L
aa(lp151
g2
aL49411056283060112215432609176309965234L
aa(lp152
g2
aL49411056283060112215432609176309965361L
aa(lp153
g2
aL49411056283060112215432609176309965449L
aa(lp154
g2
aL49411056283060112215432609176309964992L
aa(lp155
g2
aL49411056283060112215432609176309965341L
aa(lp156
L45143403460393994843877263532567381136L
aL-45143403460393994843877263532567381138L
aa(lp157
g2
aL49411056283060112215432609176309965185L
aa(lp158
g2
aL49411056283060112215432609176309965163L
aa(lp159
L114873054883478940955537381938346963024L
aL-114873054883478940955537381938346963028L
aa(lp160
L127300835726018578835784472312650428439L
aL127300835726018578835784472312650429153L
aa(lp161
g2
aL49411056283060112215432609176309965807L
aa(lp162
g2
aL49411056283060112215432609176309964950L
aa(lp163
g2
aL49411056283060112215432609176309965757L
aa(lp164
L226933915340180591867582812114694404748L
aL-226933915340180591867582812114694404750L
aa(lp165
g2
aL49411056283060112215432609176309965067L
aa(lp166
L26199030086132384327927567044849445596L
aL26199030086132384327927567044849445377L
aa(lp167
g2
aL49411056283060112215432609176309965432L
aa(lp168
L309867905593264657295114679168353091514L
aL309867905593264657295114679168353090616L
aa(lp169
g2
aL49411056283060112215432609176309965314L
aa(lp170
g2
aL49411056283060112215432609176309964865L
aa(lp171
L253038093454671532312275436304309118587L
aL253038093454671532312275436304309118810L
aa(lp172
g2
aL49411056283060112215432609176309965360L
aa(lp173
g2
aL49411056283060112215432609176309965237L
aa(lp174
g2
aL49411056283060112215432609176309964888L
aa(lp175
L2278810107558815722407704051073471795L
aL2278810107558815722407704051073472242L
aa(lp176
g2
aL49411056283060112215432609176309965008L
aa(lp177
g2
aL49411056283060112215432609176309965006L
aa(lp178
g2
aL49411056283060112215432609176309964981L
aa(lp179
g2
aL49411056283060112215432609176309965233L
aa(lp180
g2
aL49411056283060112215432609176309965626L
aa(lp181
g2
aL49411056283060112215432609176309965355L
aa(lp182
g2
aL49411056283060112215432609176309964961L
aa(lp183
g2
aL49411056283060112215432609176309965285L
aa(lp184
g2
aL49411056283060112215432609176309965278L
aa(lp185
L161526702113811206660341504047597127782L
aL-161526702113811206660341504047597127782L
aa(lp186
g2
aL49411056283060112215432609176309965190L
aa(lp187
g2
aL49411056283060112215432609176309964899L
aa(lp188
g2
aL49411056283060112215432609176309965665L
aa(lp189
L324432735942323252803231564579213699027L
aL-324432735942323252803231564579213699025L
aa(lp190
g2
aL49411056283060112215432609176309965375L
aa(lp191
L131062541079177480868901109767593905515L
aL-131062541079177480868901109767593905515L
aa(lp192
g2
aL49411056283060112215432609176309965571L
aa(lp193
g2
aL49411056283060112215432609176309965700L
aa(lp194
g2
aL49411056283060112215432609176309965698L
aa(lp195
g2
aL49411056283060112215432609176309964896L
aa(lp196
g2
aL49411056283060112215432609176309964862L
aa(lp197
L88132714832661630664962032043511556696L
aL-88132714832661630664962032043511556701L
aa(lp198
g2
aL49411056283060112215432609176309965005L
aa(lp199
L37277912508890198398143486953580158026L
aL37277912508890198398143486953580158509L
aa(lp200
g2
aL49411056283060112215432609176309965732L
aa(lp201
g2
aL49411056283060112215432609176309965702L
aa(lp202
g2
aL49411056283060112215432609176309965528L
aa(lp203
L89440249951127043652194668066535888513L
aL-89440249951127043652194668066535888515L
aa(lp204
g2
aL49411056283060112215432609176309965403L
aa(lp205
g2
aL49411056283060112215432609176309965153L
aa(lp206
g2
aL49411056283060112215432609176309965027L
aa(lp207
g2
aL49411056283060112215432609176309965816L
aa(lp208
L12781807715119410301391598723682590241L
aL-12781807715119410301391598723682590243L
aa(lp209
g2
aL49411056283060112215432609176309965111L
aa(lp210
g2
aL49411056283060112215432609176309965519L
aa(lp211
g2
aL49411056283060112215432609176309965387L
aa(lp212
g2
aL49411056283060112215432609176309965017L
aa(lp213
L71564519044701392337727607616517077113L
aL-71564519044701392337727607616517077113L
aa(lp214
g2
aL49411056283060112215432609176309965517L
aa(lp215
L85184372107726172533207951018997612165L
aL85184372107726172533207951018997611594L
aa(lp216
L308527867634570631960234007952013569561L
aL-308527867634570631960234007952013569564L
aa(lp217
g2
aL49411056283060112215432609176309965664L
aa(lp218
L16955237001963240173058271559858726496L
aL-16955237001963240173058271559858726498L
aa(lp219
g2
aL49411056283060112215432609176309964944L
aa(lp220
g2
aL49411056283060112215432609176309965738L
aa(lp221
g2
aL49411056283060112215432609176309965672L
aa(lp222
L29482869326938559439526917811220680519L
aL-29482869326938559439526917811220680519L
aa(lp223
g2
aL49411056283060112215432609176309965287L
aa(lp224
L26199030086132384327927567044849445597L
aL26199030086132384327927567044849445859L
aa(lp225
g2
aL49411056283060112215432609176309965427L
aa(lp226
g2
aL49411056283060112215432609176309965551L
aa(lp227
g2
aL49411056283060112215432609176309965087L
aa(lp228
g2
aL49411056283060112215432609176309965374L
aa(lp229
g2
aL49411056283060112215432609176309965170L
aa(lp230
g2
aL49411056283060112215432609176309965473L
aa(lp231
g2
aL49411056283060112215432609176309965618L
aa(lp232
L122656798244910736651212458503001941446L
aL-122656798244910736651212458503001941445L
aa(lp233
g2
aL49411056283060112215432609176309965283L
aa(lp234
g2
aL49411056283060112215432609176309965188L
aa(lp235
g2
aL49411056283060112215432609176309965675L
aa(lp236
g2
aL49411056283060112215432609176309965269L
aa(lp237
g2
aL49411056283060112215432609176309965388L
aa(lp238
g2
aL49411056283060112215432609176309965579L
aa(lp239
g2
aL49411056283060112215432609176309965183L
aa(lp240
L34845766461254906983997973639289895930L
aL-34845766461254906983997973639289895932L
aa(lp241
g2
aL49411056283060112215432609176309965349L
aa(lp242
L185401122480771069708217616586079991632L
aL-185401122480771069708217616586079991636L
aa(lp243
g2
aL49411056283060112215432609176309965780L
aa(lp244
g2
aL49411056283060112215432609176309965009L
aa(lp245
L79035086386427072571880563220838456111L
aL79035086386427072571880563220838455786L
aa(lp246
L223128952076257081430239972785860201107L
aL-223128952076257081430239972785860201107L
aa(lp247
g2
aL49411056283060112215432609176309965500L
aa(lp248
g2
aL49411056283060112215432609176309965394L
aa(lp249
L224890364260059138865029363098219290241L
aL-224890364260059138865029363098219290241L
aa(lp250
g2
aL49411056283060112215432609176309965803L
aa(lp251
L52810681084731432803167796301985126059L
aL52810681084731432803167796301985126384L
aa(lp252
g2
aL49411056283060112215432609176309965334L
aa(lp253
L214188962804559254178089318768934501353L
aL-214188962804559254178089318768934501355L
aa(lp254
g2
aL49411056283060112215432609176309965548L
aa(lp255
g2
aL49411056283060112215432609176309964901L
aa(lp256
L141693508428367175816910246814798929543L
aL-141693508428367175816910246814798929543L
aa(lp257
g2
aL49411056283060112215432609176309965470L
aa(lp258
g2
aL49411056283060112215432609176309965122L
aa(lp259
L300862600602403614871931371214338883494L
aL-300862600602403614871931371214338883493L
aa(lp260
g2
aL49411056283060112215432609176309965420L
aa(lp261
L216193320347389458588340531206347663851L
aL216193320347389458588340531206347664020L
aa(lp262
g2
aL49411056283060112215432609176309965415L
aa(lp263
g2
aL49411056283060112215432609176309965193L
aa(lp264
g2
aL49411056283060112215432609176309964832L
aa(lp265
g2
aL49411056283060112215432609176309965743L
aa(lp266
L117778035789130271639106870744757054964L
aL-117778035789130271639106870744757054966L
aa(lp267
g2
aL49411056283060112215432609176309965538L
aa(lp268
g2
aL49411056283060112215432609176309965052L
aa(lp269
g2
aL49411056283060112215432609176309964942L
aa(lp270
L221221380043439455467619619430852078027L
aL221221380043439455467619619430852077721L
aa(lp271
L110188170570812447719035906260901789781L
aL-110188170570812447719035906260901789783L
aa(lp272
g2
aL49411056283060112215432609176309965325L
aa(lp273
g2
aL49411056283060112215432609176309965135L
aa(lp274
L315252169844744389880327823575257021777L
aL-315252169844744389880327823575257021777L
aa(lp275
g2
aL49411056283060112215432609176309965060L
aa(lp276
L78457101926624718040142441561217262829L
aL-78457101926624718040142441561217262829L
aa(lp277
L253925893242893930217842064165339039707L
aL-253925893242893930217842064165339039707L
aa(lp278
L26199030086132384327927567044849445595L
aL26199030086132384327927567044849445499L
aa(lp279
g2
aL49411056283060112215432609176309964918L
aa(lp280
g2
aL49411056283060112215432609176309965344L
aa(lp281
g2
aL49411056283060112215432609176309964844L
aa(lp282
g2
aL49411056283060112215432609176309965529L
aa(lp283
L72318120560430449534166300588471609909L
aL-72318120560430449534166300588471609909L
aa(lp284
g2
aL49411056283060112215432609176309965804L
aa(lp285
g2
aL49411056283060112215432609176309965585L
aa(lp286
L72395330522554445429996221257624543992L
aL-72395330522554445429996221257624543997L
aa(lp287
g2
aL49411056283060112215432609176309964840L
aa(lp288
g2
aL49411056283060112215432609176309965259L
aa(lp289
g2
aL49411056283060112215432609176309964915L
aa(lp290
L188041611063492600696317361555123480285L
aL-188041611063492600696317361555123480285L
aa(lp291
g2
aL49411056283060112215432609176309965165L
aa(lp292
L253038093454671532312275436304309118586L
aL253038093454671532312275436304309118892L
aa(lp293
g2
aL49411056283060112215432609176309965398L
aa(lp294
g2
aL49411056283060112215432609176309964811L
aa(lp295
g2
aL49411056283060112215432609176309965260L
aa(lp296
g2
aL49411056283060112215432609176309965306L
aa(lp297
L86660592562663727148799656106278903485L
aL86660592562663727148799656106278903058L
aa(lp298
g2
aL49411056283060112215432609176309965048L
aa(lp299
g2
aL49411056283060112215432609176309965705L
aa(lp300
L324373678199758331138727692821508644239L
aL-324373678199758331138727692821508644237L
aa(lp301
g2
aL49411056283060112215432609176309964956L
aa(lp302
g2
aL49411056283060112215432609176309965332L
aa(lp303
g2
aL49411056283060112215432609176309965140L
aa(lp304
g2
aL49411056283060112215432609176309965251L
aa(lp305
g2
aL49411056283060112215432609176309965148L
aa(lp306
L111992144853217685135724975739500391946L
aL-111992144853217685135724975739500391946L
aa(lp307
g2
aL49411056283060112215432609176309965461L
aa(lp308
g2
aL49411056283060112215432609176309965030L
aa(lp309
g2
aL49411056283060112215432609176309965157L
aa(lp310
g2
aL49411056283060112215432609176309965549L
aa(lp311
g2
aL49411056283060112215432609176309965483L
aa(lp312
g2
aL49411056283060112215432609176309965722L
aa(lp313
g2
aL49411056283060112215432609176309964920L
aa(lp314
L186053084610610441670952187307716209381L
aL-186053084610610441670952187307716209381L
aa(lp315
L225126543231074669722395041955708853944L
aL-225126543231074669722395041955708853946L
aa(lp316
L286933535856423421925888681820868079649L
aL-286933535856423421925888681820868079651L
aa(lp317
L192786527457361319826756884412515781165L
aL192786527457361319826756884412515781181L
aa(lp318
L26199030086132384327927567044849445598L
aL-26199030086132384327927567044849445600L
aa(lp319
g2
aL49411056283060112215432609176309965256L
aa(lp320
g2
aL49411056283060112215432609176309964975L
aa(lp321
g2
aL49411056283060112215432609176309965761L
aa(lp322
L338673980952466593731654390283514889779L
aL-338673980952466593731654390283514889784L
aa(lp323
g2
aL49411056283060112215432609176309965525L
aa(lp324
g2
aL49411056283060112215432609176309964985L
aa(lp325
L230870332363232829852717971001218306111L
aL-230870332363232829852717971001218306110L
aa(lp326
g2
aL49411056283060112215432609176309965499L
aa(lp327
g2
aL49411056283060112215432609176309965154L
aa(lp328
L294989553133223080182107326349190081392L
aL294989553133223080182107326349190080540L
aa(lp329
g2
aL49411056283060112215432609176309965707L
aa(lp330
g2
aL49411056283060112215432609176309965179L
aa(lp331
g2
aL49411056283060112215432609176309965713L
aa(lp332
g2
aL49411056283060112215432609176309964964L
aa(lp333
g2
aL49411056283060112215432609176309965453L
aa(lp334
g2
aL49411056283060112215432609176309965505L
aa(lp335
g2
aL49411056283060112215432609176309965515L
aa(lp336
g2
aL49411056283060112215432609176309965014L
aa(lp337
g2
aL49411056283060112215432609176309965225L
aa(lp338
g2
aL49411056283060112215432609176309964872L
aa(lp339
L221221380043439455467619619430852078026L
aL-221221380043439455467619619430852078025L
aa(lp340
g2
aL49411056283060112215432609176309965203L
aa(lp341
g2
aL49411056283060112215432609176309965556L
aa(lp342
g2
aL49411056283060112215432609176309964924L
aa(lp343
g2
aL49411056283060112215432609176309965754L
aa(lp344
g2
aL49411056283060112215432609176309964822L
aa(lp345
g2
aL49411056283060112215432609176309965607L
aa(lp346
g2
aL49411056283060112215432609176309964994L
aa(lp347
L52810681084731432803167796301985126056L
aL-52810681084731432803167796301985126058L
aa(lp348
L243493974605400377780422834004120086156L
aL-243493974605400377780422834004120086160L
aa(lp349
g2
aL49411056283060112215432609176309965129L
aa(lp350
L8854240722463883999357733915721542036L
aL-8854240722463883999357733915721542038L
aa(lp351
g2
aL49411056283060112215432609176309964982L
aa(lp352
g2
aL49411056283060112215432609176309965081L
aa(lp353
g2
aL49411056283060112215432609176309965667L
aa(lp354
g2
aL49411056283060112215432609176309965091L
aa(lp355
g2
aL49411056283060112215432609176309965733L
aa(lp356
g2
aL49411056283060112215432609176309965697L
aa(lp357
g2
aL49411056283060112215432609176309964880L
aa(lp358
g2
aL49411056283060112215432609176309965031L
aa(lp359
g2
aL49411056283060112215432609176309965071L
aa(lp360
g2
aL49411056283060112215432609176309965147L
aa(lp361
g2
aL49411056283060112215432609176309965693L
aa(lp362
g2
aL49411056283060112215432609176309965266L
aa(lp363
g2
aL49411056283060112215432609176309965164L
aa(lp364
g2
aL49411056283060112215432609176309965209L
aa(lp365
g2
aL49411056283060112215432609176309965493L
aa(lp366
g2
aL49411056283060112215432609176309965302L
aa(lp367
g2
aL49411056283060112215432609176309964913L
aa(lp368
L237268400724250600711099618611612771743L
aL-237268400724250600711099618611612771741L
aa(lp369
g2
aL49411056283060112215432609176309965117L
aa(lp370
g2
aL49411056283060112215432609176309965728L
aa(lp371
g2
aL49411056283060112215432609176309965522L
aa(lp372
L214188962804559254178089318768934501358L
aL214188962804559254178089318768934501137L
aa(lp373
g2
aL49411056283060112215432609176309965069L
aa(lp374
g2
aL49411056283060112215432609176309964843L
aa(lp375
g2
aL49411056283060112215432609176309965100L
aa(lp376
g2
aL49411056283060112215432609176309965602L
aa(lp377
g2
aL49411056283060112215432609176309965433L
aa(lp378
g2
aL49411056283060112215432609176309964847L
aa(lp379
g2
aL49411056283060112215432609176309965601L
aa(lp380
g2
aL49411056283060112215432609176309965143L
aa(lp381
g2
aL49411056283060112215432609176309965249L
aa(lp382
g2
aL49411056283060112215432609176309965158L
aa(lp383
L114941975694943161523401835192534218092L
aL-114941975694943161523401835192534218089L
aa(lp384
g2
aL49411056283060112215432609176309965454L
aa(lp385
g2
aL49411056283060112215432609176309965560L
aa(lp386
g2
aL49411056283060112215432609176309965257L
aa(lp387
L188041611063492600696317361555123480287L
aL188041611063492600696317361555123480572L
aa(lp388
g2
aL49411056283060112215432609176309965765L
aa(lp389
g2
aL49411056283060112215432609176309965448L
aa(lp390
g2
aL49411056283060112215432609176309965333L
aa(lp391
g2
aL49411056283060112215432609176309965125L
aa(lp392
g2
aL49411056283060112215432609176309965292L
aa(lp393
L306390619206324648769397888972820612651L
aL-306390619206324648769397888972820612651L
aa(lp394
g2
aL49411056283060112215432609176309965769L
aa(lp395
g2
aL49411056283060112215432609176309964851L
aa(lp396
g2
aL49411056283060112215432609176309964825L
aa(lp397
g2
aL49411056283060112215432609176309964925L
aa(lp398
g2
aL49411056283060112215432609176309964852L
aa(lp399
g2
aL49411056283060112215432609176309965022L
aa(lp400
g2
aL49411056283060112215432609176309965108L
aa(lp401
L196701098664786984015174935192670507521L
aL-196701098664786984015174935192670507523L
aa(lp402
g2
aL49411056283060112215432609176309964820L
aa(lp403
g2
aL49411056283060112215432609176309965058L
aa(lp404
L321626845668191765632441201012897608948L
aL-321626845668191765632441201012897608950L
aa(lp405
g2
aL49411056283060112215432609176309965252L
aa(lp406
g2
aL49411056283060112215432609176309965518L
aa(lp407
L298779627657299730309109011667020583740L
aL-298779627657299730309109011667020583742L
aa(lp408
L44322346982202462658822084698240404061L
aL44322346982202462658822084698240403498L
aa(lp409
g2
aL49411056283060112215432609176309965288L
aa(lp410
g2
aL49411056283060112215432609176309965542L
aa(lp411
g2
aL49411056283060112215432609176309965484L
aa(lp412
g2
aL49411056283060112215432609176309965558L
aa(lp413
g2
aL49411056283060112215432609176309965749L
aa(lp414
g2
aL49411056283060112215432609176309965616L
aa(lp415
g2
aL49411056283060112215432609176309965712L
aa(lp416
g2
aL49411056283060112215432609176309965313L
aa(lp417
g2
aL49411056283060112215432609176309965146L
aa(lp418
L191098194712608679334781218410706715477L
aL191098194712608679334781218410706715127L
aa(lp419
g2
aL49411056283060112215432609176309965527L
aa(lp420
L329648993649601064659549557752055899764L
aL-329648993649601064659549557752055899761L
aa(lp421
L133416282060805441650167338640736040861L
aL-133416282060805441650167338640736040861L
aa(lp422
g2
aL49411056283060112215432609176309965610L
aa(lp423
L261578874264819908609102035485573088410L
aL-261578874264819908609102035485573088412L
aa(lp424
g2
aL49411056283060112215432609176309965184L
aa(lp425
L239498208137848539466139491824040566172L
aL-239498208137848539466139491824040566176L
aa(lp426
g2
aL49411056283060112215432609176309965040L
aa(lp427
g2
aL49411056283060112215432609176309965331L
aa(lp428
g2
aL49411056283060112215432609176309965668L
aa(lp429
g2
aL49411056283060112215432609176309965507L
aa(lp430
g2
aL49411056283060112215432609176309965254L
aa(lp431
g2
aL49411056283060112215432609176309965552L
aa(lp432
g2
aL49411056283060112215432609176309964923L
aa(lp433
g2
aL49411056283060112215432609176309965581L
aa(lp434
g2
aL49411056283060112215432609176309964951L
aa(lp435
g2
aL49411056283060112215432609176309965310L
aa(lp436
L317247403208917306432365859934883640725L
aL-317247403208917306432365859934883640725L
aa(lp437
g2
aL49411056283060112215432609176309965124L
aa(lp438
L16955237001963240173058271559858726498L
aL16955237001963240173058271559858726585L
aa(lp439
g2
aL49411056283060112215432609176309965592L
aa(lp440
L324722741084818350966690983348695018392L
aL-324722741084818350966690983348695018396L
aa(lp441
g2
aL49411056283060112215432609176309964885L
aa(lp442
g2
aL49411056283060112215432609176309964958L
aa(lp443
g2
aL49411056283060112215432609176309965406L
aa(lp444
g2
aL49411056283060112215432609176309965731L
aa(lp445
g2
aL49411056283060112215432609176309965435L
aa(lp446
g2
aL49411056283060112215432609176309965216L
aa(lp447
g2
aL49411056283060112215432609176309964976L
aa(lp448
g2
aL49411056283060112215432609176309965078L
aa(lp449
L142141309008699715986398387565000893122L
aL-142141309008699715986398387565000893122L
aa(lp450
g2
aL49411056283060112215432609176309964941L
aa(lp451
L92409810695796701461268769910238708285L
aL-92409810695796701461268769910238708282L
aa(lp452
g2
aL49411056283060112215432609176309965229L
aa(lp453
g2
aL49411056283060112215432609176309965092L
aa(lp454
g2
aL49411056283060112215432609176309965778L
aa(lp455
g2
aL49411056283060112215432609176309965651L
aa(lp456
g2
aL49411056283060112215432609176309964962L
aa(lp457
g2
aL49411056283060112215432609176309964833L
aa(lp458
g2
aL49411056283060112215432609176309965113L
aa(lp459
g2
aL49411056283060112215432609176309965318L
aa(lp460
g2
aL49411056283060112215432609176309965788L
aa(lp461
g2
aL49411056283060112215432609176309965755L
aa(lp462
g2
aL49411056283060112215432609176309964874L
aa(lp463
g2
aL49411056283060112215432609176309965409L
aa(lp464
L286943754984336685489182170392022394977L
aL-286943754984336685489182170392022394977L
aa(lp465
g2
aL49411056283060112215432609176309965413L
aa(lp466
g2
aL49411056283060112215432609176309965595L
aa(lp467
g2
aL49411056283060112215432609176309965566L
aa(lp468
g2
aL49411056283060112215432609176309964940L
aa(lp469
L224052917636537177300540359967572765248L
aL-224052917636537177300540359967572765250L
aa(lp470
L253038093454671532312275436304309118585L
aL-253038093454671532312275436304309118585L
aa(lp471
g2
aL49411056283060112215432609176309965289L
aa(lp472
g2
aL49411056283060112215432609176309965812L
aa(lp473
g2
aL49411056283060112215432609176309965487L
aa(lp474
g2
aL49411056283060112215432609176309965480L
aa(lp475
L131062541079177480868901109767593905512L
aL131062541079177480868901109767593905623L
aa(lp476
g2
aL49411056283060112215432609176309965095L
aa(lp477
g2
aL49411056283060112215432609176309965554L
aa(lp478
g2
aL49411056283060112215432609176309965723L
aa(lp479
L296797414244808294143930585641712399545L
aL-296797414244808294143930585641712399548L
aa(lp480
g2
aL49411056283060112215432609176309965408L
aa(lp481
g2
aL49411056283060112215432609176309965211L
aa(lp482
g2
aL49411056283060112215432609176309965516L
aa(lp483
g2
aL49411056283060112215432609176309965577L
aa(lp484
g2
aL49411056283060112215432609176309964824L
aa(lp485
g2
aL-49411056283060112215432609176309964984L
aa(lp486
L210778016888740241451719193517598973683L
aL-210778016888740241451719193517598973683L
aa(lp487
g2
aL49411056283060112215432609176309964952L
aa(lp488
g2
aL49411056283060112215432609176309964848L
aa(lp489
g2
aL49411056283060112215432609176309965815L
aa(lp490
g2
aL49411056283060112215432609176309965631L
aa(lp491
L218576547613787824078809665057315419642L
aL218576547613787824078809665057315420013L
aa(lp492
L111520541629677338652863289537700209929L
aL-111520541629677338652863289537700209932L
aa(lp493
g2
aL49411056283060112215432609176309965362L
aa(lp494
g2
aL49411056283060112215432609176309965497L
aa(lp495
g2
aL49411056283060112215432609176309965280L
aa(lp496
L216193320347389458588340531206347663853L
aL216193320347389458588340531206347664377L
aa(lp497
g2
aL49411056283060112215432609176309964823L
aa(lp498
g2
aL49411056283060112215432609176309965716L
aa(lp499
L72627325299423042606933911443954532537L
aL72627325299423042606933911443954533239L
aa(lp500
g2
aL49411056283060112215432609176309965504L
aa(lp501
g2
aL49411056283060112215432609176309965687L
aa(lp502
g2
aL49411056283060112215432609176309965137L
aa(lp503
g2
aL49411056283060112215432609176309964906L
aa(lp504
g2
aL49411056283060112215432609176309965392L
aa(lp505
g2
aL49411056283060112215432609176309965182L
aa(lp506
g2
aL49411056283060112215432609176309964972L
aa(lp507
g2
aL49411056283060112215432609176309965751L
aa(lp508
g2
aL49411056283060112215432609176309965167L
aa(lp509
g2
aL49411056283060112215432609176309965265L
aa(lp510
g2
aL49411056283060112215432609176309964891L
aa(lp511
g2
aL49411056283060112215432609176309964869L
aa(lp512
g2
aL49411056283060112215432609176309965084L
aa(lp513
g2
aL49411056283060112215432609176309964809L
aa(lp514
L32816812968184756120760590370684751468L
aL32816812968184756120760590370684751474L
aa(lp515
g2
aL49411056283060112215432609176309965215L
aa(lp516
g2
aL49411056283060112215432609176309964816L
aa(lp517
g2
aL49411056283060112215432609176309965102L
aa(lp518
g2
aL49411056283060112215432609176309965574L
aa(lp519
g2
aL49411056283060112215432609176309965729L
aa(lp520
g2
aL49411056283060112215432609176309965222L
aa(lp521
L337311033188769404643475007373785974533L
aL-337311033188769404643475007373785974533L
aa(lp522
L198726480257857143026918858465819559386L
aL-198726480257857143026918858465819559386L
aa(lp523
g2
aL49411056283060112215432609176309965782L
aa(lp524
g2
aL49411056283060112215432609176309965806L
aa(lp525
g2
aL49411056283060112215432609176309965301L
aa(lp526
g2
aL49411056283060112215432609176309964883L
aa(lp527
L333305474600869313146037509594144187488L
aL333305474600869313146037509594144188039L
aa(lp528
g2
aL49411056283060112215432609176309964977L
aa(lp529
g2
aL49411056283060112215432609176309965561L
aa(lp530
L216193320347389458588340531206347663850L
aL216193320347389458588340531206347663594L
aa(lp531
g2
aL49411056283060112215432609176309965578L
aa(lp532
g2
aL49411056283060112215432609176309965281L
aa(lp533
g2
aL49411056283060112215432609176309964879L
aa(lp534
L325937775083568711925365352410639854743L
aL-325937775083568711925365352410639854741L
aa(lp535
g2
aL49411056283060112215432609176309965180L
aa(lp536
g2
aL49411056283060112215432609176309965186L
aa(lp537
g2
aL49411056283060112215432609176309965802L
aa(lp538
g2
aL49411056283060112215432609176309965694L
aa(lp539
g2
aL49411056283060112215432609176309965133L
aa(lp540
g2
aL49411056283060112215432609176309965345L
aa(lp541
g2
aL49411056283060112215432609176309965012L
aa(lp542
g2
aL49411056283060112215432609176309965531L
aa(lp543
L76807460577584084691263641303168957921L
aL-76807460577584084691263641303168957924L
aa(lp544
g2
aL49411056283060112215432609176309965159L
aa(lp545
g2
aL49411056283060112215432609176309965593L
aa(lp546
g2
aL49411056283060112215432609176309965797L
aa(lp547
g2
aL49411056283060112215432609176309965397L
aa(lp548
g2
aL49411056283060112215432609176309965460L
aa(lp549
g2
aL49411056283060112215432609176309965246L
aa(lp550
g2
aL49411056283060112215432609176309965007L
aa(lp551
g2
aL49411056283060112215432609176309965431L
aa(lp552
g2
aL49411056283060112215432609176309965486L
aa(lp553
L106597400100913337840309794689690373597L
aL-106597400100913337840309794689690373600L
aa(lp554
g2
aL49411056283060112215432609176309965347L
aa(lp555
g2
aL49411056283060112215432609176309965151L
aa(lp556
g2
aL49411056283060112215432609176309964904L
aa(lp557
g2
aL49411056283060112215432609176309965568L
aa(lp558
g2
aL49411056283060112215432609176309964939L
aa(lp559
g2
aL49411056283060112215432609176309965261L
aa(lp560
g2
aL49411056283060112215432609176309964835L
aa(lp561
L312846667860262014969721324351937985160L
aL-312846667860262014969721324351937985164L
aa(lp562
g2
aL49411056283060112215432609176309965544L
aa(lp563
g2
aL49411056283060112215432609176309965354L
aa(lp564
g2
aL49411056283060112215432609176309965324L
aa(lp565
g2
aL49411056283060112215432609176309965724L
aa(lp566
g2
aL49411056283060112215432609176309965393L
aa(lp567
L181296140448642482809972562105697870369L
aL-181296140448642482809972562105697870371L
aa(lp568
g2
aL49411056283060112215432609176309965792L
aa(lp569
g2
aL49411056283060112215432609176309965463L
aa(lp570
g2
aL49411056283060112215432609176309965086L
aa(lp571
g2
aL49411056283060112215432609176309965029L
aa(lp572
g2
aL49411056283060112215432609176309965407L
aa(lp573
g2
aL49411056283060112215432609176309965521L
aa(lp574
g2
aL49411056283060112215432609176309965268L
aa(lp575
g2
aL49411056283060112215432609176309964995L
aa(lp576
g2
aL49411056283060112215432609176309965056L
aa(lp577
g2
aL49411056283060112215432609176309965127L
aa(lp578
g2
aL49411056283060112215432609176309964903L
aa(lp579
g2
aL49411056283060112215432609176309965264L
aa(lp580
L130765684875106285809661493517456372001L
aL-130765684875106285809661493517456372006L
aa(lp581
g2
aL49411056283060112215432609176309965026L
aa(lp582
L43074511837979067582677299639685143588L
aL-43074511837979067582677299639685143590L
aa(lp583
g2
aL49411056283060112215432609176309965047L
aa(lp584
L315252169844744389880327823575257021778L
aL315252169844744389880327823575257021504L
aa(lp585
g2
aL49411056283060112215432609176309965714L
aa(lp586
L186053084610610441670952187307716209376L
aL186053084610610441670952187307716209051L
aa(lp587
g2
aL49411056283060112215432609176309965275L
aa(lp588
g2
aL49411056283060112215432609176309964804L
aa(lp589
g2
aL49411056283060112215432609176309965741L
aa(lp590
g2
aL49411056283060112215432609176309964803L
aa(lp591
g2
aL49411056283060112215432609176309965066L
aa(lp592
g2
aL49411056283060112215432609176309965418L
aa(lp593
g2
aL49411056283060112215432609176309965132L
aa(lp594
g2
aL49411056283060112215432609176309965620L
aa(lp595
g2
aL49411056283060112215432609176309965739L
aa(lp596
L243315483377195156234354873833087902752L
aL-243315483377195156234354873833087902754L
aa(lp597
g2
aL49411056283060112215432609176309964953L
aa(lp598
g2
aL49411056283060112215432609176309965045L
aa(lp599
g2
aL49411056283060112215432609176309964892L
aa(lp600
g2
aL49411056283060112215432609176309965032L
aa(lp601
g2
aL49411056283060112215432609176309965210L
aa(lp602
g2
aL49411056283060112215432609176309965671L
aa(lp603
L279665847239292280609768783717639768850L
aL-279665847239292280609768783717639768850L
aa(lp604
g2
aL49411056283060112215432609176309965382L
aa(lp605
g2
aL49411056283060112215432609176309965380L
aa(lp606
g2
aL49411056283060112215432609176309965402L
aa(lp607
g2
aL49411056283060112215432609176309965321L
aa(lp608
L8854240722463883999357733915721542033L
aL8854240722463883999357733915721541833L
aa(lp609
g2
aL49411056283060112215432609176309965212L
aa(lp610
g2
aL49411056283060112215432609176309964829L
aa(lp611
L329319492632057910849358821981258850199L
aL-329319492632057910849358821981258850196L
aa(lp612
g2
aL49411056283060112215432609176309964858L
aa(lp613
g2
aL49411056283060112215432609176309965481L
aa(lp614
L37277912508890198398143486953580158027L
aL-37277912508890198398143486953580158026L
aa(lp615
g2
aL49411056283060112215432609176309965118L
aa(lp616
g2
aL49411056283060112215432609176309965474L
aa(lp617
L268219182036971381400915264396335239049L
aL-268219182036971381400915264396335239049L
aa(lp618
g2
aL49411056283060112215432609176309965311L
aa(lp619
L156174460157291145484480431786557304490L
aL156174460157291145484480431786557303851L
aa(lp620
g2
aL49411056283060112215432609176309965202L
aa(lp621
g2
aL49411056283060112215432609176309965756L
aa(lp622
g2
aL49411056283060112215432609176309965446L
aa(lp623
g2
aL49411056283060112215432609176309965085L
aa(lp624
g2
aL49411056283060112215432609176309965428L
aa(lp625
g2
aL49411056283060112215432609176309965466L
aa(lp626
L35191539084594198088365867356169889074L
aL-35191539084594198088365867356169889076L
aa(lp627
g2
aL49411056283060112215432609176309964815L
aa(lp628
g2
aL49411056283060112215432609176309965083L
aa(lp629
L44322346982202462658822084698240404058L
aL44322346982202462658822084698240403988L
aa(lp630
g2
aL49411056283060112215432609176309965450L
aa(lp631
g2
aL49411056283060112215432609176309965298L
aa(lp632
g2
aL49411056283060112215432609176309965706L
aa(lp633
g2
aL49411056283060112215432609176309964945L
aa(lp634
g2
aL49411056283060112215432609176309965097L
aa(lp635
g2
aL49411056283060112215432609176309965039L
aa(lp636
g2
aL49411056283060112215432609176309965226L
aa(lp637
g2
aL49411056283060112215432609176309965208L
aa(lp638
g2
aL49411056283060112215432609176309964986L
aa(lp639
g2
aL49411056283060112215432609176309965455L
aa(lp640
g2
aL49411056283060112215432609176309964853L
aa(lp641
g2
aL49411056283060112215432609176309965376L
aa(lp642
L136152143646018544521814441730565769064L
aL-136152143646018544521814441730565769066L
aa(lp643
g2
aL49411056283060112215432609176309964818L
aa(lp644
L156174460157291145484480431786557304491L
aL-156174460157291145484480431786557304490L
aa(lp645
L170951020168967712425376962652453776100L
aL170951020168967712425376962652453775774L
aa(lp646
L147640896045216716494844947383085794063L
aL-147640896045216716494844947383085794060L
aa(lp647
g2
aL49411056283060112215432609176309965750L
aa(lp648
g2
aL49411056283060112215432609176309964998L
aa(lp649
g2
aL49411056283060112215432609176309965582L
aa(lp650
g2
aL49411056283060112215432609176309965748L
aa(lp651
g2
aL49411056283060112215432609176309964870L
aa(lp652
g2
aL49411056283060112215432609176309965670L
aa(lp653
g2
aL49411056283060112215432609176309964960L
aa(lp654
L283574240599268479608258648246783202536L
aL283574240599268479608258648246783203083L
aa(lp655
L283343178249605912142157906725472553504L
aL-283343178249605912142157906725472553508L
aa(lp656
g2
aL49411056283060112215432609176309965766L
aa(lp657
g2
aL49411056283060112215432609176309965290L
aa(lp658
L218576547613787824078809665057315419647L
aL-218576547613787824078809665057315419647L
aa(lp659
g2
aL49411056283060112215432609176309965368L
aa(lp660
g2
aL49411056283060112215432609176309965327L
aa(lp661
L218576547613787824078809665057315419644L
aL218576547613787824078809665057315420014L
aa(lp662
g2
aL49411056283060112215432609176309964856L
aa(lp663
g2
aL49411056283060112215432609176309965584L
aa(lp664
g2
aL49411056283060112215432609176309965587L
aa(lp665
g2
aL49411056283060112215432609176309965580L
aa(lp666
g2
aL49411056283060112215432609176309965490L
aa(lp667
g2
aL49411056283060112215432609176309964839L
aa(lp668
L312299496823315925661933896851274986314L
aL-312299496823315925661933896851274986313L
aa(lp669
g2
aL49411056283060112215432609176309965384L
aa(lp670
g2
aL49411056283060112215432609176309965800L
aa(lp671
g2
aL49411056283060112215432609176309965445L
aa(lp672
g2
aL49411056283060112215432609176309965764L
aa(lp673
g2
aL49411056283060112215432609176309965041L
aa(lp674
L191098194712608679334781218410706715478L
aL-191098194712608679334781218410706715480L
aa(lp675
g2
aL49411056283060112215432609176309965629L
aa(lp676
g2
aL49411056283060112215432609176309965377L
aa(lp677
g2
aL49411056283060112215432609176309965605L
aa(lp678
g2
aL49411056283060112215432609176309965677L
aa(lp679
L141693508428367175816910246814798929541L
aL141693508428367175816910246814798928928L
aa(lp680
L141693508428367175816910246814798929540L
aL141693508428367175816910246814798929528L
aa(lp681
g2
aL49411056283060112215432609176309965502L
aa(lp682
g2
aL49411056283060112215432609176309965023L
aa(lp683
g2
aL49411056283060112215432609176309965447L
aa(lp684
g2
aL49411056283060112215432609176309964947L
aa(lp685
L20125917771768282749222821927120120098L
aL-20125917771768282749222821927120120100L
aa(lp686
L14197292422796585777494663582412868432L
aL-14197292422796585777494663582412868435L
aa(lp687
L47382547829039383040409115339590487978L
aL47382547829039383040409115339590487245L
aa(lp688
g2
aL49411056283060112215432609176309965589L
aa(lp689
L118661929096051851656173201625959217928L
aL-118661929096051851656173201625959217933L
aa(lp690
g2
aL49411056283060112215432609176309965296L
aa(lp691
g2
aL49411056283060112215432609176309964801L
aa(lp692
g2
aL49411056283060112215432609176309965088L
aa(lp693
L318906788427426362741213851965727270477L
aL-318906788427426362741213851965727270477L
aa(lp694
g2
aL49411056283060112215432609176309965695L
aa(lp695
g2
aL49411056283060112215432609176309965405L
aa(lp696
g2
aL49411056283060112215432609176309965532L
aa(lp697
g2
aL49411056283060112215432609176309965295L
aa(lp698
g2
aL49411056283060112215432609176309965379L
aa(lp699
L73447392815782912816711041681428019615L
aL-73447392815782912816711041681428019615L
aa(lp700
g2
aL49411056283060112215432609176309964895L
aa(lp701
g2
aL49411056283060112215432609176309964802L
aa(lp702
g2
aL49411056283060112215432609176309965063L
aa(lp703
g2
aL49411056283060112215432609176309965328L
aa(lp704
g2
aL49411056283060112215432609176309965123L
aa(lp705
g2
aL49411056283060112215432609176309965346L
aa(lp706
g2
aL49411056283060112215432609176309964854L
aa(lp707
L79035086386427072571880563220838456106L
aL-79035086386427072571880563220838456108L
aa(lp708
g2
aL49411056283060112215432609176309965411L
aa(lp709
g2
aL49411056283060112215432609176309965609L
aa(lp710
g2
aL49411056283060112215432609176309965704L
aa(lp711
g2
aL49411056283060112215432609176309965491L
aa(lp712
L127300835726018578835784472312650428434L
aL-127300835726018578835784472312650428436L
aa(lp713
g2
aL49411056283060112215432609176309965307L
aa(lp714
g2
aL49411056283060112215432609176309964855L
aa(lp715
g2
aL49411056283060112215432609176309965805L
aa(lp716
g2
aL49411056283060112215432609176309964949L
aa(lp717
g2
aL49411056283060112215432609176309964928L
aa(lp718
g2
aL49411056283060112215432609176309964861L
aa(lp719
L85184372107726172533207951018997612166L
aL-85184372107726172533207951018997612168L
aa(lp720
g2
aL49411056283060112215432609176309965457L
aa(lp721
g2
aL49411056283060112215432609176309965033L
aa(lp722
g2
aL49411056283060112215432609176309965441L
aa(lp723
L188041611063492600696317361555123480280L
aL188041611063492600696317361555123480413L
aa(lp724
g2
aL49411056283060112215432609176309965794L
aa(lp725
L191098194712608679334781218410706715476L
aL191098194712608679334781218410706715383L
aa(lp726
g2
aL49411056283060112215432609176309965010L
aa(lp727
g2
aL49411056283060112215432609176309964887L
aa(lp728
g2
aL49411056283060112215432609176309965369L
aa(lp729
g2
aL49411056283060112215432609176309965798L
aa(lp730
g2
aL49411056283060112215432609176309965627L
aa(lp731
g2
aL49411056283060112215432609176309964996L
aa(lp732
L128183934359446490912476215289721814372L
aL-128183934359446490912476215289721814376L
aa(lp733
g2
aL49411056283060112215432609176309964808L
aa(lp734
g2
aL49411056283060112215432609176309965169L
aa(lp735
g2
aL49411056283060112215432609176309965138L
aa(lp736
g2
aL49411056283060112215432609176309964990L
aa(lp737
L184609574338790218668739662633505767650L
aL-184609574338790218668739662633505767655L
aa(lp738
g2
aL49411056283060112215432609176309965818L
aa(lp739
g2
aL49411056283060112215432609176309965000L
aa(lp740
g2
aL49411056283060112215432609176309965686L
aa(lp741
g2
aL49411056283060112215432609176309964919L
aa(lp742
L333305474600869313146037509594144187489L
aL-333305474600869313146037509594144187492L
aa(lp743
g2
aL49411056283060112215432609176309965244L
aa(lp744
g2
aL49411056283060112215432609176309965337L
aa(lp745
g2
aL49411056283060112215432609176309965038L
aa(lp746
g2
aL49411056283060112215432609176309964834L
aa(lp747
g2
aL49411056283060112215432609176309965576L
aa(lp748
g2
aL49411056283060112215432609176309964863L
aa(lp749
L315252169844744389880327823575257021779L
aL315252169844744389880327823575257022230L
aa(lp750
g2
aL49411056283060112215432609176309965783L
aa(lp751
g2
aL49411056283060112215432609176309965277L
aa(lp752
g2
aL49411056283060112215432609176309964927L
aa(lp753
g2
aL49411056283060112215432609176309965121L
aa(lp754
g2
aL49411056283060112215432609176309965496L
aa(lp755
g2
aL49411056283060112215432609176309964993L
aa(lp756
L127300835726018578835784472312650428433L
aL127300835726018578835784472312650429141L
aa(lp757
g2
aL49411056283060112215432609176309965530L
aa(lp758
g2
aL49411056283060112215432609176309965217L
aa(lp759
L117346698037556400957346884821582698035L
aL-117346698037556400957346884821582698040L
aa(lp760
g2
aL49411056283060112215432609176309965279L
aa(lp761
g2
aL49411056283060112215432609176309965096L
aa(lp762
g2
aL49411056283060112215432609176309965650L
aa(lp763
L121948605920332742417390385072667700749L
aL-121948605920332742417390385072667700746L
aa(lp764
g2
aL49411056283060112215432609176309965282L
aa(lp765
g2
aL49411056283060112215432609176309965760L
aa(lp766
g2
aL49411056283060112215432609176309964917L
aa(lp767
L46726542870970863969345813254280023737L
aL-46726542870970863969345813254280023740L
aa(lp768
g2
aL49411056283060112215432609176309965274L
aa(lp769
g2
aL49411056283060112215432609176309964968L
aa(lp770
g2
aL49411056283060112215432609176309965787L
aa(lp771
g2
aL49411056283060112215432609176309965688L
aa(lp772
g2
aL49411056283060112215432609176309965342L
aa(lp773
g2
aL49411056283060112215432609176309965073L
aa(lp774
g2
aL49411056283060112215432609176309965115L
aa(lp775
g2
aL49411056283060112215432609176309965194L
aa(lp776
g2
aL49411056283060112215432609176309965094L
aa(lp777
L210844844693726334908391990333441210114L
aL-210844844693726334908391990333441210119L
aa(lp778
g2
aL49411056283060112215432609176309965614L
aa(lp779
g2
aL49411056283060112215432609176309964936L
aa(lp780
g2
aL49411056283060112215432609176309965685L
aa(lp781
g2
aL49411056283060112215432609176309965539L
aa(lp782
g2
aL49411056283060112215432609176309965533L
aa(lp783
g2
aL49411056283060112215432609176309965666L
aa(lp784
g2
aL49411056283060112215432609176309965192L
aa(lp785
g2
aL49411056283060112215432609176309965098L
aa(lp786
g2
aL49411056283060112215432609176309965513L
aa(lp787
L75221189368751633072620078257594264591L
aL-75221189368751633072620078257594264588L
aa(lp788
g2
aL49411056283060112215432609176309965784L
aa(lp789
g2
aL49411056283060112215432609176309965255L
aa(lp790
g2
aL49411056283060112215432609176309965343L
aa(lp791
g2
aL49411056283060112215432609176309965565L
aa(lp792
g2
aL49411056283060112215432609176309965562L
aa(lp793
g2
aL49411056283060112215432609176309965049L
aa(lp794
g2
aL49411056283060112215432609176309965726L
aa(lp795
L86660592562663727148799656106278903484L
aL86660592562663727148799656106278903704L
aa(lp796
g2
aL49411056283060112215432609176309965692L
aa(lp797
g2
aL49411056283060112215432609176309965424L
aa(lp798
g2
aL49411056283060112215432609176309965385L
aa(lp799
g2
aL49411056283060112215432609176309965458L
aa(lp800
g2
aL49411056283060112215432609176309965399L
aa(lp801
L132687329834829618538999122614639176316L
aL-132687329834829618538999122614639176313L
aa(lp802
L187007136748764226823505187053652226413L
aL-187007136748764226823505187053652226416L
aa(lp803
g2
aL49411056283060112215432609176309964978L
aa(lp804
g2
aL49411056283060112215432609176309965537L
aa(lp805
g2
aL49411056283060112215432609176309965817L
aa(lp806
g2
aL49411056283060112215432609176309964965L
aa(lp807
g2
aL49411056283060112215432609176309964980L
aa(lp808
g2
aL49411056283060112215432609176309964893L
aa(lp809
g2
aL49411056283060112215432609176309964850L
aa(lp810
L281588849408501781079682819789501586733L
aL-281588849408501781079682819789501586736L
aa(lp811
g2
aL49411056283060112215432609176309965181L
aa(lp812
g2
aL49411056283060112215432609176309965142L
aa(lp813
g2
aL49411056283060112215432609176309965172L
aa(lp814
g2
aL49411056283060112215432609176309965036L
aa(lp815
g2
aL49411056283060112215432609176309965795L
aa(lp816
g2
aL49411056283060112215432609176309965648L
aa(lp817
g2
aL49411056283060112215432609176309965682L
aa(lp818
L247369472056518983966272242310429961998L
aL-247369472056518983966272242310429961998L
aa(lp819
g2
aL49411056283060112215432609176309965758L
aa(lp820
L335031417128968419371709462851060498374L
aL-335031417128968419371709462851060498371L
aa(lp821
g2
aL49411056283060112215432609176309965175L
aa(lp822
g2
aL49411056283060112215432609176309965617L
aa(lp823
g2
aL49411056283060112215432609176309965451L
aa(lp824
g2
aL49411056283060112215432609176309964909L
aa(lp825
L17386965136278831468862200520284534259L
aL-17386965136278831468862200520284534257L
aa(lp826
g2
aL49411056283060112215432609176309964807L
aa(lp827
L236250248203164816707889037167271744990L
aL-236250248203164816707889037167271744992L
aa(lp828
g2
aL49411056283060112215432609176309965309L
aa(lp829
g2
aL49411056283060112215432609176309965772L
aa(lp830
g2
aL49411056283060112215432609176309965187L
aa(lp831
g2
aL49411056283060112215432609176309965171L
aa(lp832
g2
aL49411056283060112215432609176309965189L
aa(lp833
g2
aL49411056283060112215432609176309964884L
aa(lp834
g2
aL49411056283060112215432609176309965708L
aa(lp835
L271927652340938865172815364521841099066L
aL-271927652340938865172815364521841099065L
aa(lp836
L131062541079177480868901109767593905513L
aL131062541079177480868901109767593905331L
aa(lp837
g2
aL49411056283060112215432609176309965440L
aa(lp838
L165709235725882605143385183677840920110L
aL-165709235725882605143385183677840920110L
aa(lp839
L266154274375780257578976664462586604810L
aL-266154274375780257578976664462586604815L
aa(lp840
L141082692163550701117866991432449661394L
aL-141082692163550701117866991432449661396L
aa(lp841
L122119994076575414752602961441428911629L
aL-122119994076575414752602961441428911626L
aa(lp842
g2
aL49411056283060112215432609176309965501L
aa(lp843
L175487434728105923217022080845734521874L
aL-175487434728105923217022080845734521873L
aa(lp844
g2
aL49411056283060112215432609176309965735L
aa(lp845
g2
aL49411056283060112215432609176309965114L
aa(lp846
g2
aL49411056283060112215432609176309964934L
aa(lp847
g2
aL49411056283060112215432609176309965270L
aa(lp848
g2
aL49411056283060112215432609176309965509L
aa(lp849
g2
aL49411056283060112215432609176309965717L
aa(lp850
g2
aL49411056283060112215432609176309964959L
aa(lp851
g2
aL49411056283060112215432609176309965144L
aa(lp852
g2
aL49411056283060112215432609176309965308L
aa(lp853
g2
aL49411056283060112215432609176309965619L
aa(lp854
g2
aL49411056283060112215432609176309965467L
aa(lp855
g2
aL49411056283060112215432609176309965547L
aa(lp856
L160576542000167741367987204226999934852L
aL-160576542000167741367987204226999934856L
aa(lp857
g2
aL49411056283060112215432609176309965319L
aa(lp858
g2
aL49411056283060112215432609176309964932L
aa(lp859
g2
aL49411056283060112215432609176309965613L
aa(lp860
g2
aL49411056283060112215432609176309965262L
aa(lp861
g2
aL49411056283060112215432609176309965239L
aa(lp862
g2
aL49411056283060112215432609176309965652L
aa(lp863
g2
aL49411056283060112215432609176309964908L
aa(lp864
L9643703763198627784355665723338905900L
aL-9643703763198627784355665723338905904L
aa(lp865
g2
aL49411056283060112215432609176309965459L
aa(lp866
g2
aL49411056283060112215432609176309965240L
aa(lp867
g2
aL49411056283060112215432609176309964912L
aa(lp868
L31204714928037002715232930428922999007L
aL-31204714928037002715232930428922999007L
aa(lp869
g2
aL49411056283060112215432609176309965105L
aa(lp870
L47382547829039383040409115339590487979L
aL-47382547829039383040409115339590487978L
aa(lp871
g2
aL49411056283060112215432609176309965070L
aa(lp872
g2
aL49411056283060112215432609176309965019L
aa(lp873
L111365330764598141404646256713820531091L
aL-111365330764598141404646256713820531096L
aa(lp874
L294989553133223080182107326349190081399L
aL-294989553133223080182107326349190081397L
aa(lp875
g2
aL49411056283060112215432609176309965559L
aa(lp876
g2
aL49411056283060112215432609176309964997L
aa(lp877
g2
aL49411056283060112215432609176309964813L
aa(lp878
g2
aL49411056283060112215432609176309964930L
aa(lp879
L210778016888740241451719193517598973686L
aL210778016888740241451719193517598973718L
aa(lp880
g2
aL49411056283060112215432609176309965674L
aa(lp881
g2
aL49411056283060112215432609176309965204L
aa(lp882
g2
aL49411056283060112215432609176309965304L
aa(lp883
g2
aL49411056283060112215432609176309965540L
aa(lp884
g2
aL49411056283060112215432609176309965245L
aa(lp885
g2
aL49411056283060112215432609176309965116L
aa(lp886
L173656894469114516481058567084255291944L
aL-173656894469114516481058567084255291946L
aa(lp887
g2
aL49411056283060112215432609176309965410L
aa(lp888
g2
aL49411056283060112215432609176309965043L
aa(lp889
g2
aL49411056283060112215432609176309965054L
aa(lp890
g2
aL49411056283060112215432609176309965476L
aa(lp891
L170951020168967712425376962652453776101L
aL-170951020168967712425376962652453776104L
aa(lp892
g2
aL49411056283060112215432609176309965718L
aa(lp893
g2
aL49411056283060112215432609176309965512L
aa(lp894
L166768754618012595542622638639973706692L
aL-166768754618012595542622638639973706695L
aa(lp895
L216193320347389458588340531206347663848L
aL-216193320347389458588340531206347663850L
aa(lp896
g2
aL49411056283060112215432609176309965373L
aa(lp897
L186053084610610441670952187307716209383L
aL186053084610610441670952187307716208931L
aa(lp898
g2
aL49411056283060112215432609176309965396L
aa(lp899
L309867905593264657295114679168353091515L
aL-309867905593264657295114679168353091514L
aa(lp900
g2
aL49411056283060112215432609176309965206L
aa(lp901
g2
aL49411056283060112215432609176309965228L
aa(lp902
g2
aL49411056283060112215432609176309965777L
aa(lp903
g2
aL49411056283060112215432609176309965747L
aa(lp904
g2
aL49411056283060112215432609176309965065L
aa(lp905
g2
aL49411056283060112215432609176309964890L
aa(lp906
g2
aL49411056283060112215432609176309965317L
aa(lp907
g2
aL49411056283060112215432609176309965721L
aa(lp908
g2
aL49411056283060112215432609176309965419L
aa(lp909
L17386965136278831468862200520284534260L
aL17386965136278831468862200520284534471L
aa(lp910
g2
aL49411056283060112215432609176309965438L
aa(lp911
g2
aL49411056283060112215432609176309965720L
aa(lp912
L210497887695335364623071109882975424849L
aL-210497887695335364623071109882975424851L
aa(lp913
L69683309783654016798579665441278163472L
aL-69683309783654016798579665441278163474L
aa(lp914
g2
aL49411056283060112215432609176309965109L
aa(lp915
g2
aL49411056283060112215432609176309964938L
aa(lp916
g2
aL49411056283060112215432609176309965737L
aa(lp917
g2
aL49411056283060112215432609176309964877L
aa(lp918
g2
aL49411056283060112215432609176309964805L
aa(lp919
g2
aL49411056283060112215432609176309965015L
aa(lp920
g2
aL49411056283060112215432609176309965785L
aa(lp921
L238167815258774724989647312051039531144L
aL-238167815258774724989647312051039531147L
aa(lp922
g2
aL49411056283060112215432609176309965543L
aa(lp923
g2
aL49411056283060112215432609176309965514L
aa(lp924
g2
aL49411056283060112215432609176309965025L
aa(lp925
g2
aL49411056283060112215432609176309965082L
aa(lp926
g2
aL49411056283060112215432609176309964882L
aa(lp927
g2
aL49411056283060112215432609176309965042L
aa(lp928
g2
aL49411056283060112215432609176309964971L
aa(lp929
L108248718991896543343075732109507575336L
aL-108248718991896543343075732109507575341L
aa(lp930
g2
aL49411056283060112215432609176309964922L
aa(lp931
g2
aL49411056283060112215432609176309965173L
aa(lp932
g2
aL49411056283060112215432609176309965168L
aa(lp933
L185494156999739357056957599416404588004L
aL-185494156999739357056957599416404588008L
aa(lp934
g2
aL49411056283060112215432609176309965178L
aa(lp935
L58994471207260148389833531789060503689L
aL58994471207260148389833531789060503708L
aa(lp936
g2
aL49411056283060112215432609176309965471L
aa(lp937
g2
aL49411056283060112215432609176309964866L
aa(lp938
L214678880770509114818228625328870763088L
aL-214678880770509114818228625328870763090L
aa(lp939
g2
aL49411056283060112215432609176309965232L
aa(lp940
g2
aL49411056283060112215432609176309965535L
aa(lp941
L2278810107558815722407704051073471797L
aL2278810107558815722407704051073471900L
aa(lp942
g2
aL49411056283060112215432609176309965241L
aa(lp943
L86660592562663727148799656106278903486L
aL-86660592562663727148799656106278903488L
aa(lp944
g2
aL49411056283060112215432609176309965422L
aa(lp945
g2
aL49411056283060112215432609176309965494L
aa(lp946
L24392373442708726481642298367077663796L
aL-24392373442708726481642298367077663799L
aa(lp947
g2
aL49411056283060112215432609176309965752L
aa(lp948
g2
aL49411056283060112215432609176309965044L
aa(lp949
g2
aL49411056283060112215432609176309965649L
aa(lp950
g2
aL49411056283060112215432609176309965021L
aa(lp951
L219267144271836905333955889022803175386L
aL-219267144271836905333955889022803175386L
aa(lp952
g2
aL49411056283060112215432609176309965630L
aa(lp953
g2
aL49411056283060112215432609176309965366L
aa(lp954
L191098194712608679334781218410706715475L
aL191098194712608679334781218410706715012L
aa(lp955
g2
aL49411056283060112215432609176309965267L
aa(lp956
g2
aL49411056283060112215432609176309964991L
aa(lp957
g2
aL49411056283060112215432609176309964937L
aa(lp958
g2
aL49411056283060112215432609176309965224L
aa(lp959
g2
aL49411056283060112215432609176309965462L
aa(lp960
g2
aL49411056283060112215432609176309965101L
aa(lp961
g2
aL49411056283060112215432609176309965120L
aa(lp962
g2
aL49411056283060112215432609176309965429L
aa(lp963
g2
aL49411056283060112215432609176309965725L
aa(lp964
g2
aL49411056283060112215432609176309965773L
aa(lp965
L2278810107558815722407704051073471792L
aL-2278810107558815722407704051073471794L
aa(lp966
g2
aL49411056283060112215432609176309965591L
aa(lp967
g2
aL49411056283060112215432609176309965055L
aa(lp968
g2
aL49411056283060112215432609176309965004L
aa(lp969
L186053084610610441670952187307716209382L
aL186053084610610441670952187307716209628L
aa(lp970
g2
aL49411056283060112215432609176309965400L
aa(lp971
g2
aL49411056283060112215432609176309965615L
aa(lp972
g2
aL49411056283060112215432609176309964814L
aa(lp973
g2
aL49411056283060112215432609176309965176L
aa(lp974
g2
aL49411056283060112215432609176309965699L
aa(lp975
L72627325299423042606933911443954532536L
aL-72627325299423042606933911443954532539L
aa(lp976
L32254587636733730291428565112803941590L
aL-32254587636733730291428565112803941590L
aa(lp977
g2
aL49411056283060112215432609176309965572L
aa(lp978
g2
aL49411056283060112215432609176309965681L
aa(lp979
g2
aL49411056283060112215432609176309965444L
aa(lp980
g2
aL49411056283060112215432609176309965062L
aa(lp981
g2
aL49411056283060112215432609176309964988L
aa(lp982
g2
aL49411056283060112215432609176309965506L
aa(lp983
g2
aL49411056283060112215432609176309964987L
aa(lp984
g2
aL49411056283060112215432609176309965075L
aa(lp985
g2
aL49411056283060112215432609176309965823L
aa(lp986
L131385009489587318854940540891704096838L
aL-131385009489587318854940540891704096840L
aa(lp987
L124490088800871666261403074844276835848L
aL-124490088800871666261403074844276835851L
aa(lp988
g2
aL49411056283060112215432609176309965715L
aa(lp989
g2
aL49411056283060112215432609176309965107L
aa(lp990
g2
aL49411056283060112215432609176309964929L
aa(lp991
g2
aL49411056283060112215432609176309965546L
aa(lp992
L312299496823315925661933896851274986315L
aL312299496823315925661933896851274985938L
aa(lp993
g2
aL49411056283060112215432609176309965272L
aa(lp994
L283574240599268479608258648246783202538L
aL-283574240599268479608258648246783202540L
aa(lp995
g2
aL49411056283060112215432609176309964828L
aa(lp996
L119208377518758804274620603989600968650L
aL-119208377518758804274620603989600968652L
aa(lp997
g2
aL49411056283060112215432609176309965767L
aa(lp998
g2
aL49411056283060112215432609176309965524L
aa(lp999
g2
aL49411056283060112215432609176309965305L
aa(lp1000
g2
aL49411056283060112215432609176309965819L
aa(lp1001
g2
aL49411056283060112215432609176309965389L
aa.